Microsoft (R) COFF/PE Dumper Version 14.16.27032.1
Copyright (C) Microsoft Corporation.  All rights reserved.


Dump of file TheGreatestBrain.exe

File Type: EXECUTABLE IMAGE

time:
  00401000: 55                 push        ebp
  00401001: 8B EC              mov         ebp,esp
  00401003: 8B 45 08           mov         eax,dword ptr [ebp+8]
  00401006: 50                 push        eax
  00401007: FF 15 3C 51 40 00  call        dword ptr [__imp___time64]
  0040100D: 83 C4 04           add         esp,4
  00401010: 5D                 pop         ebp
  00401011: C3                 ret
  00401012: CC CC CC CC CC CC CC CC CC CC CC CC CC CC        ..............
_CreateBlueGame:
  00401020: 55                 push        ebp
  00401021: 8B EC              mov         ebp,esp
  00401023: 83 EC 10           sub         esp,10h
  00401026: 56                 push        esi
  00401027: A1 E8 65 40 00     mov         eax,dword ptr ds:[004065E8h]
  0040102C: 2B 05 E0 65 40 00  sub         eax,dword ptr [_blueRect]
  00401032: 89 45 F8           mov         dword ptr [ebp-8],eax
  00401035: 8B 0D EC 65 40 00  mov         ecx,dword ptr ds:[4065ECh]
  0040103B: 2B 0D E4 65 40 00  sub         ecx,dword ptr ds:[4065E4h]
  00401041: 89 4D F0           mov         dword ptr [ebp-10h],ecx
  00401044: 33 D2              xor         edx,edx
  00401046: 66 89 15 40 66 40  mov         word ptr [_triangleOffSet],dx
            00
  0040104D: 8B 45 F8           mov         eax,dword ptr [ebp-8]
  00401050: 99                 cdq
  00401051: B9 14 00 00 00     mov         ecx,14h
  00401056: F7 F9              idiv        eax,ecx
  00401058: A3 D0 65 40 00     mov         dword ptr [_triangleWidth],eax
  0040105D: 8B 45 F0           mov         eax,dword ptr [ebp-10h]
  00401060: 99                 cdq
  00401061: B9 03 00 00 00     mov         ecx,3
  00401066: F7 F9              idiv        eax,ecx
  00401068: A3 CC 65 40 00     mov         dword ptr [_wallLength],eax
  0040106D: 6B 45 F8 05        imul        eax,dword ptr [ebp-8],5
  00401071: 99                 cdq
  00401072: B9 06 00 00 00     mov         ecx,6
  00401077: F7 F9              idiv        eax,ecx
  00401079: A3 44 66 40 00     mov         dword ptr [_triangleX],eax
  0040107E: 8B 45 F8           mov         eax,dword ptr [ebp-8]
  00401081: D1 E0              shl         eax,1
  00401083: 99                 cdq
  00401084: B9 03 00 00 00     mov         ecx,3
  00401089: F7 F9              idiv        eax,ecx
  0040108B: A3 DC 65 40 00     mov         dword ptr [_wallX],eax
  00401090: 8B 45 F8           mov         eax,dword ptr [ebp-8]
  00401093: 99                 cdq
  00401094: B9 03 00 00 00     mov         ecx,3
  00401099: F7 F9              idiv        eax,ecx
  0040109B: A3 C4 65 40 00     mov         dword ptr [_wallDistance],eax
  004010A0: 6A 00              push        0
  004010A2: E8 59 FF FF FF     call        00401000
  004010A7: 83 C4 04           add         esp,4
  004010AA: 8B F0              mov         esi,eax
  004010AC: FF 15 48 51 40 00  call        dword ptr [__imp__rand]
  004010B2: 99                 cdq
  004010B3: 03 F0              add         esi,eax
  004010B5: 56                 push        esi
  004010B6: FF 15 44 51 40 00  call        dword ptr [__imp__srand]
  004010BC: 83 C4 04           add         esp,4
  004010BF: C7 45 FC 00 00 00  mov         dword ptr [ebp-4],0
            00
  004010C6: EB 09              jmp         004010D1
  004010C8: 8B 55 FC           mov         edx,dword ptr [ebp-4]
  004010CB: 83 C2 01           add         edx,1
  004010CE: 89 55 FC           mov         dword ptr [ebp-4],edx
  004010D1: 83 7D FC 03        cmp         dword ptr [ebp-4],3
  004010D5: 7D 2E              jge         00401105
  004010D7: C7 45 F4 00 00 00  mov         dword ptr [ebp-0Ch],0
            00
  004010DE: EB 09              jmp         004010E9
  004010E0: 8B 45 F4           mov         eax,dword ptr [ebp-0Ch]
  004010E3: 83 C0 01           add         eax,1
  004010E6: 89 45 F4           mov         dword ptr [ebp-0Ch],eax
  004010E9: 83 7D F4 03        cmp         dword ptr [ebp-0Ch],3
  004010ED: 7D 14              jge         00401103
  004010EF: 6B 4D FC 0C        imul        ecx,dword ptr [ebp-4],0Ch
  004010F3: 8B 55 F4           mov         edx,dword ptr [ebp-0Ch]
  004010F6: C7 84 91 A0 65 40  mov         dword ptr _walls[ecx+edx*4],1
            00 01 00 00 00
  00401101: EB DD              jmp         004010E0
  00401103: EB C3              jmp         004010C8
  00401105: C7 45 FC 00 00 00  mov         dword ptr [ebp-4],0
            00
  0040110C: EB 09              jmp         00401117
  0040110E: 8B 45 FC           mov         eax,dword ptr [ebp-4]
  00401111: 83 C0 01           add         eax,1
  00401114: 89 45 FC           mov         dword ptr [ebp-4],eax
  00401117: 83 7D FC 03        cmp         dword ptr [ebp-4],3
  0040111B: 7D 1F              jge         0040113C
  0040111D: 6B 75 FC 0C        imul        esi,dword ptr [ebp-4],0Ch
  00401121: FF 15 48 51 40 00  call        dword ptr [__imp__rand]
  00401127: 99                 cdq
  00401128: B9 03 00 00 00     mov         ecx,3
  0040112D: F7 F9              idiv        eax,ecx
  0040112F: C7 84 96 A0 65 40  mov         dword ptr _walls[esi+edx*4],0
            00 00 00 00 00
  0040113A: EB D2              jmp         0040110E
  0040113C: C7 05 D4 65 40 00  mov         dword ptr [_blueSpeed],1
            01 00 00 00
  00401146: 6A 00              push        0
  00401148: 6A 14              push        14h
  0040114A: 68 F6 37 01 00     push        137F6h
  0040114F: 8B 15 C8 65 40 00  mov         edx,dword ptr [_hwnd]
  00401155: 52                 push        edx
  00401156: FF 15 80 50 40 00  call        dword ptr [__imp__SetTimer@16]
  0040115C: 5E                 pop         esi
  0040115D: 8B E5              mov         esp,ebp
  0040115F: 5D                 pop         ebp
  00401160: C3                 ret
  00401161: CC CC CC CC CC CC CC CC CC CC CC CC CC CC CC     ...............
_OnBlueTimer:
  00401170: 55                 push        ebp
  00401171: 8B EC              mov         ebp,esp
  00401173: 83 EC 0C           sub         esp,0Ch
  00401176: 56                 push        esi
  00401177: A1 E8 65 40 00     mov         eax,dword ptr ds:[004065E8h]
  0040117C: 2B 05 E0 65 40 00  sub         eax,dword ptr [_blueRect]
  00401182: 89 45 F4           mov         dword ptr [ebp-0Ch],eax
  00401185: 83 3D 00 66 40 00  cmp         dword ptr [_pause],0
            00
  0040118C: 74 05              je          00401193
  0040118E: E9 4F 01 00 00     jmp         004012E2
  00401193: 8B 0D DC 65 40 00  mov         ecx,dword ptr [_wallX]
  00401199: 03 0D D4 65 40 00  add         ecx,dword ptr [_blueSpeed]
  0040119F: 89 0D DC 65 40 00  mov         dword ptr [_wallX],ecx
  004011A5: C7 45 FC 00 00 00  mov         dword ptr [ebp-4],0
            00
  004011AC: EB 09              jmp         004011B7
  004011AE: 8B 55 FC           mov         edx,dword ptr [ebp-4]
  004011B1: 83 C2 01           add         edx,1
  004011B4: 89 55 FC           mov         dword ptr [ebp-4],edx
  004011B7: 83 7D FC 03        cmp         dword ptr [ebp-4],3
  004011BB: 7D 60              jge         0040121D
  004011BD: 6B 45 FC 0C        imul        eax,dword ptr [ebp-4],0Ch
  004011C1: 0F BF 0D 40 66 40  movsx       ecx,word ptr [_triangleOffSet]
            00
  004011C8: 83 BC 88 A4 65 40  cmp         dword ptr [eax+ecx*4+4065A4h],0
            00 00
  004011D0: 74 49              je          0040121B
  004011D2: 8B 55 FC           mov         edx,dword ptr [ebp-4]
  004011D5: 0F AF 15 C4 65 40  imul        edx,dword ptr [_wallDistance]
            00
  004011DC: A1 DC 65 40 00     mov         eax,dword ptr [_wallX]
  004011E1: 2B C2              sub         eax,edx
  004011E3: 39 05 44 66 40 00  cmp         dword ptr [_triangleX],eax
  004011E9: 77 30              ja          0040121B
  004011EB: 8B 0D 44 66 40 00  mov         ecx,dword ptr [_triangleX]
  004011F1: 03 0D D0 65 40 00  add         ecx,dword ptr [_triangleWidth]
  004011F7: 8B 55 FC           mov         edx,dword ptr [ebp-4]
  004011FA: 0F AF 15 C4 65 40  imul        edx,dword ptr [_wallDistance]
            00
  00401201: A1 DC 65 40 00     mov         eax,dword ptr [_wallX]
  00401206: 2B C2              sub         eax,edx
  00401208: 3B C8              cmp         ecx,eax
  0040120A: 72 0F              jb          0040121B
  0040120C: C7 05 04 66 40 00  mov         dword ptr [_dead],1
            01 00 00 00
  00401216: E9 C7 00 00 00     jmp         004012E2
  0040121B: EB 91              jmp         004011AE
  0040121D: 8B 0D DC 65 40 00  mov         ecx,dword ptr [_wallX]
  00401223: 3B 4D F4           cmp         ecx,dword ptr [ebp-0Ch]
  00401226: 0F 82 B6 00 00 00  jb          004012E2
  0040122C: 8B 45 F4           mov         eax,dword ptr [ebp-0Ch]
  0040122F: D1 E0              shl         eax,1
  00401231: 99                 cdq
  00401232: B9 03 00 00 00     mov         ecx,3
  00401237: F7 F9              idiv        eax,ecx
  00401239: A3 DC 65 40 00     mov         dword ptr [_wallX],eax
  0040123E: C7 45 FC 00 00 00  mov         dword ptr [ebp-4],0
            00
  00401245: EB 09              jmp         00401250
  00401247: 8B 55 FC           mov         edx,dword ptr [ebp-4]
  0040124A: 83 C2 01           add         edx,1
  0040124D: 89 55 FC           mov         dword ptr [ebp-4],edx
  00401250: 83 7D FC 02        cmp         dword ptr [ebp-4],2
  00401254: 7D 3D              jge         00401293
  00401256: C7 45 F8 00 00 00  mov         dword ptr [ebp-8],0
            00
  0040125D: EB 09              jmp         00401268
  0040125F: 8B 45 F8           mov         eax,dword ptr [ebp-8]
  00401262: 83 C0 01           add         eax,1
  00401265: 89 45 F8           mov         dword ptr [ebp-8],eax
  00401268: 83 7D F8 03        cmp         dword ptr [ebp-8],3
  0040126C: 7D 23              jge         00401291
  0040126E: 8B 4D FC           mov         ecx,dword ptr [ebp-4]
  00401271: 83 C1 01           add         ecx,1
  00401274: 6B D1 0C           imul        edx,ecx,0Ch
  00401277: 6B 45 FC 0C        imul        eax,dword ptr [ebp-4],0Ch
  0040127B: 8B 4D F8           mov         ecx,dword ptr [ebp-8]
  0040127E: 8B 75 F8           mov         esi,dword ptr [ebp-8]
  00401281: 8B 94 B2 A0 65 40  mov         edx,dword ptr _walls[edx+esi*4]
            00
  00401288: 89 94 88 A0 65 40  mov         dword ptr _walls[eax+ecx*4],edx
            00
  0040128F: EB CE              jmp         0040125F
  00401291: EB B4              jmp         00401247
  00401293: C7 45 F8 00 00 00  mov         dword ptr [ebp-8],0
            00
  0040129A: EB 09              jmp         004012A5
  0040129C: 8B 45 F8           mov         eax,dword ptr [ebp-8]
  0040129F: 83 C0 01           add         eax,1
  004012A2: 89 45 F8           mov         dword ptr [ebp-8],eax
  004012A5: 83 7D F8 03        cmp         dword ptr [ebp-8],3
  004012A9: 7D 17              jge         004012C2
  004012AB: B9 0C 00 00 00     mov         ecx,0Ch
  004012B0: D1 E1              shl         ecx,1
  004012B2: 8B 55 F8           mov         edx,dword ptr [ebp-8]
  004012B5: C7 84 91 A0 65 40  mov         dword ptr _walls[ecx+edx*4],1
            00 01 00 00 00
  004012C0: EB DA              jmp         0040129C
  004012C2: BE 0C 00 00 00     mov         esi,0Ch
  004012C7: D1 E6              shl         esi,1
  004012C9: FF 15 48 51 40 00  call        dword ptr [__imp__rand]
  004012CF: 99                 cdq
  004012D0: B9 03 00 00 00     mov         ecx,3
  004012D5: F7 F9              idiv        eax,ecx
  004012D7: C7 84 96 A0 65 40  mov         dword ptr _walls[esi+edx*4],0
            00 00 00 00 00
  004012E2: 5E                 pop         esi
  004012E3: 8B E5              mov         esp,ebp
  004012E5: 5D                 pop         ebp
  004012E6: C3                 ret
  004012E7: CC CC CC CC CC CC CC CC CC                       .........
_OnBlueKeyDown:
  004012F0: 55                 push        ebp
  004012F1: 8B EC              mov         ebp,esp
  004012F3: 51                 push        ecx
  004012F4: 8B 45 08           mov         eax,dword ptr [ebp+8]
  004012F7: 89 45 FC           mov         dword ptr [ebp-4],eax
  004012FA: 83 7D FC 26        cmp         dword ptr [ebp-4],26h
  004012FE: 74 08              je          00401308
  00401300: 83 7D FC 28        cmp         dword ptr [ebp-4],28h
  00401304: 74 20              je          00401326
  00401306: EB 3A              jmp         00401342
  00401308: 0F BF 0D 40 66 40  movsx       ecx,word ptr [_triangleOffSet]
            00
  0040130F: 85 C9              test        ecx,ecx
  00401311: 7C 11              jl          00401324
  00401313: 0F BF 15 40 66 40  movsx       edx,word ptr [_triangleOffSet]
            00
  0040131A: 83 EA 01           sub         edx,1
  0040131D: 66 89 15 40 66 40  mov         word ptr [_triangleOffSet],dx
            00
  00401324: EB 1C              jmp         00401342
  00401326: 0F BF 05 40 66 40  movsx       eax,word ptr [_triangleOffSet]
            00
  0040132D: 85 C0              test        eax,eax
  0040132F: 7F 11              jg          00401342
  00401331: 0F BF 0D 40 66 40  movsx       ecx,word ptr [_triangleOffSet]
            00
  00401338: 83 C1 01           add         ecx,1
  0040133B: 66 89 0D 40 66 40  mov         word ptr [_triangleOffSet],cx
            00
  00401342: 8B E5              mov         esp,ebp
  00401344: 5D                 pop         ebp
  00401345: C3                 ret
  00401346: CC CC CC CC CC CC CC CC CC CC                    ..........
_OnBlueKeyUp:
  00401350: 55                 push        ebp
  00401351: 8B EC              mov         ebp,esp
  00401353: 5D                 pop         ebp
  00401354: C3                 ret
  00401355: CC CC CC CC CC CC CC CC CC CC CC                 ...........
_BlueGamePaint:
  00401360: 55                 push        ebp
  00401361: 8B EC              mov         ebp,esp
  00401363: 83 EC 40           sub         esp,40h
  00401366: A1 04 60 40 00     mov         eax,dword ptr [___security_cookie]
  0040136B: 33 C5              xor         eax,ebp
  0040136D: 89 45 FC           mov         dword ptr [ebp-4],eax
  00401370: A1 E8 65 40 00     mov         eax,dword ptr ds:[004065E8h]
  00401375: 2B 05 E0 65 40 00  sub         eax,dword ptr [_blueRect]
  0040137B: 89 45 C0           mov         dword ptr [ebp-40h],eax
  0040137E: 8B 0D EC 65 40 00  mov         ecx,dword ptr ds:[4065ECh]
  00401384: 2B 0D E4 65 40 00  sub         ecx,dword ptr ds:[4065E4h]
  0040138A: 89 4D D4           mov         dword ptr [ebp-2Ch],ecx
  0040138D: 68 99 D9 EA 00     push        0EAD999h
  00401392: FF 15 1C 50 40 00  call        dword ptr [__imp__CreateSolidBrush@4]
  00401398: 89 45 CC           mov         dword ptr [ebp-34h],eax
  0040139B: 8B 15 D0 65 40 00  mov         edx,dword ptr [_triangleWidth]
  004013A1: C1 EA 02           shr         edx,2
  004013A4: 52                 push        edx
  004013A5: E8 06 0A 00 00     call        _blackPen
  004013AA: 83 C4 04           add         esp,4
  004013AD: 89 45 C8           mov         dword ptr [ebp-38h],eax
  004013B0: 68 00 A2 E8 00     push        0E8A200h
  004013B5: 6A 01              push        1
  004013B7: 6A 00              push        0
  004013B9: FF 15 10 50 40 00  call        dword ptr [__imp__CreatePen@12]
  004013BF: 89 45 C4           mov         dword ptr [ebp-3Ch],eax
  004013C2: 8B 45 CC           mov         eax,dword ptr [ebp-34h]
  004013C5: 50                 push        eax
  004013C6: 8B 0D 94 65 40 00  mov         ecx,dword ptr [_hdcMem]
  004013CC: 51                 push        ecx
  004013CD: FF 15 08 50 40 00  call        dword ptr [__imp__SelectObject@8]
  004013D3: 8B 15 EC 65 40 00  mov         edx,dword ptr ds:[4065ECh]
  004013D9: 52                 push        edx
  004013DA: A1 E8 65 40 00     mov         eax,dword ptr ds:[004065E8h]
  004013DF: 50                 push        eax
  004013E0: 8B 0D E4 65 40 00  mov         ecx,dword ptr ds:[4065E4h]
  004013E6: 51                 push        ecx
  004013E7: 8B 15 E0 65 40 00  mov         edx,dword ptr [_blueRect]
  004013ED: 52                 push        edx
  004013EE: A1 94 65 40 00     mov         eax,dword ptr [_hdcMem]
  004013F3: 50                 push        eax
  004013F4: FF 15 14 50 40 00  call        dword ptr [__imp__Rectangle@20]
  004013FA: 8B 4D C8           mov         ecx,dword ptr [ebp-38h]
  004013FD: 51                 push        ecx
  004013FE: 8B 15 94 65 40 00  mov         edx,dword ptr [_hdcMem]
  00401404: 52                 push        edx
  00401405: FF 15 08 50 40 00  call        dword ptr [__imp__SelectObject@8]
  0040140B: C7 45 E4 00 00 00  mov         dword ptr [ebp-1Ch],0
            00
  00401412: EB 09              jmp         0040141D
  00401414: 8B 45 E4           mov         eax,dword ptr [ebp-1Ch]
  00401417: 83 C0 01           add         eax,1
  0040141A: 89 45 E4           mov         dword ptr [ebp-1Ch],eax
  0040141D: 83 7D E4 03        cmp         dword ptr [ebp-1Ch],3
  00401421: 0F 8D C2 00 00 00  jge         004014E9
  00401427: C7 45 E8 00 00 00  mov         dword ptr [ebp-18h],0
            00
  0040142E: EB 09              jmp         00401439
  00401430: 8B 4D E8           mov         ecx,dword ptr [ebp-18h]
  00401433: 83 C1 01           add         ecx,1
  00401436: 89 4D E8           mov         dword ptr [ebp-18h],ecx
  00401439: 83 7D E8 03        cmp         dword ptr [ebp-18h],3
  0040143D: 0F 8D A1 00 00 00  jge         004014E4
  00401443: 6B 55 E4 0C        imul        edx,dword ptr [ebp-1Ch],0Ch
  00401447: 8B 45 E8           mov         eax,dword ptr [ebp-18h]
  0040144A: 83 BC 82 A0 65 40  cmp         dword ptr _walls[edx+eax*4],0
            00 00
  00401452: 0F 84 87 00 00 00  je          004014DF
  00401458: 8B 0D E0 65 40 00  mov         ecx,dword ptr [_blueRect]
  0040145E: 03 0D DC 65 40 00  add         ecx,dword ptr [_wallX]
  00401464: 8B 55 E4           mov         edx,dword ptr [ebp-1Ch]
  00401467: 0F AF 15 C4 65 40  imul        edx,dword ptr [_wallDistance]
            00
  0040146E: 2B CA              sub         ecx,edx
  00401470: 89 4D E0           mov         dword ptr [ebp-20h],ecx
  00401473: B8 08 00 00 00     mov         eax,8
  00401478: C1 E0 00           shl         eax,0
  0040147B: 8B 4D E0           mov         ecx,dword ptr [ebp-20h]
  0040147E: 89 4C 05 EC        mov         dword ptr [ebp+eax-14h],ecx
  00401482: BA 08 00 00 00     mov         edx,8
  00401487: 6B C2 00           imul        eax,edx,0
  0040148A: 8B 4D E0           mov         ecx,dword ptr [ebp-20h]
  0040148D: 89 4C 05 EC        mov         dword ptr [ebp+eax-14h],ecx
  00401491: 8B 55 E8           mov         edx,dword ptr [ebp-18h]
  00401494: 0F AF 15 CC 65 40  imul        edx,dword ptr [_wallLength]
            00
  0040149B: 03 15 E4 65 40 00  add         edx,dword ptr ds:[4065E4h]
  004014A1: B8 08 00 00 00     mov         eax,8
  004014A6: 6B C8 00           imul        ecx,eax,0
  004014A9: 89 54 0D F0        mov         dword ptr [ebp+ecx-10h],edx
  004014AD: 8B 55 E8           mov         edx,dword ptr [ebp-18h]
  004014B0: 83 C2 01           add         edx,1
  004014B3: 0F AF 15 CC 65 40  imul        edx,dword ptr [_wallLength]
            00
  004014BA: 03 15 E4 65 40 00  add         edx,dword ptr ds:[4065E4h]
  004014C0: B8 08 00 00 00     mov         eax,8
  004014C5: C1 E0 00           shl         eax,0
  004014C8: 89 54 05 F0        mov         dword ptr [ebp+eax-10h],edx
  004014CC: 6A 02              push        2
  004014CE: 8D 4D EC           lea         ecx,[ebp-14h]
  004014D1: 51                 push        ecx
  004014D2: 8B 15 94 65 40 00  mov         edx,dword ptr [_hdcMem]
  004014D8: 52                 push        edx
  004014D9: FF 15 0C 50 40 00  call        dword ptr [__imp__Polyline@12]
  004014DF: E9 4C FF FF FF     jmp         00401430
  004014E4: E9 2B FF FF FF     jmp         00401414
  004014E9: 8B 45 C4           mov         eax,dword ptr [ebp-3Ch]
  004014EC: 50                 push        eax
  004014ED: 8B 0D 94 65 40 00  mov         ecx,dword ptr [_hdcMem]
  004014F3: 51                 push        ecx
  004014F4: FF 15 08 50 40 00  call        dword ptr [__imp__SelectObject@8]
  004014FA: C7 45 E8 00 00 00  mov         dword ptr [ebp-18h],0
            00
  00401501: EB 09              jmp         0040150C
  00401503: 8B 55 E8           mov         edx,dword ptr [ebp-18h]
  00401506: 83 C2 01           add         edx,1
  00401509: 89 55 E8           mov         dword ptr [ebp-18h],edx
  0040150C: 8B 45 E8           mov         eax,dword ptr [ebp-18h]
  0040150F: 3B 05 D0 65 40 00  cmp         eax,dword ptr [_triangleWidth]
  00401515: 0F 83 F3 00 00 00  jae         0040160E
  0040151B: 8B 0D E0 65 40 00  mov         ecx,dword ptr [_blueRect]
  00401521: 03 0D 44 66 40 00  add         ecx,dword ptr [_triangleX]
  00401527: 03 4D E8           add         ecx,dword ptr [ebp-18h]
  0040152A: 89 4D DC           mov         dword ptr [ebp-24h],ecx
  0040152D: BA 08 00 00 00     mov         edx,8
  00401532: C1 E2 00           shl         edx,0
  00401535: 8B 45 DC           mov         eax,dword ptr [ebp-24h]
  00401538: 89 44 15 EC        mov         dword ptr [ebp+edx-14h],eax
  0040153C: B9 08 00 00 00     mov         ecx,8
  00401541: 6B D1 00           imul        edx,ecx,0
  00401544: 8B 45 DC           mov         eax,dword ptr [ebp-24h]
  00401547: 89 44 15 EC        mov         dword ptr [ebp+edx-14h],eax
  0040154B: 0F BF 0D 40 66 40  movsx       ecx,word ptr [_triangleOffSet]
            00
  00401552: 0F AF 0D CC 65 40  imul        ecx,dword ptr [_wallLength]
            00
  00401559: 03 0D E4 65 40 00  add         ecx,dword ptr ds:[4065E4h]
  0040155F: 8B 45 D4           mov         eax,dword ptr [ebp-2Ch]
  00401562: 99                 cdq
  00401563: 2B C2              sub         eax,edx
  00401565: D1 F8              sar         eax,1
  00401567: 03 C8              add         ecx,eax
  00401569: 89 4D D8           mov         dword ptr [ebp-28h],ecx
  0040156C: F2 0F 2A 45 D8     cvtsi2sd    xmm0,dword ptr [ebp-28h]
  00401571: 8B 55 D8           mov         edx,dword ptr [ebp-28h]
  00401574: C1 EA 1F           shr         edx,1Fh
  00401577: F2 0F 58 04 D5 B0  addsd       xmm0,mmword ptr __xmm@41f00000000000000000000000000000[edx*8]
            51 40 00
  00401580: F2 0F 2A 4D E8     cvtsi2sd    xmm1,dword ptr [ebp-18h]
  00401585: F2 0F 59 0D 98 51  mulsd       xmm1,mmword ptr [__real@3fe4cccccccccccd]
            40 00
  0040158D: F2 0F 58 C1        addsd       xmm0,xmm1
  00401591: B8 08 00 00 00     mov         eax,8
  00401596: 6B C8 00           imul        ecx,eax,0
  00401599: F2 0F 2C D0        cvttsd2si   edx,xmm0
  0040159D: 89 54 0D F0        mov         dword ptr [ebp+ecx-10h],edx
  004015A1: 0F BF 0D 40 66 40  movsx       ecx,word ptr [_triangleOffSet]
            00
  004015A8: 0F AF 0D CC 65 40  imul        ecx,dword ptr [_wallLength]
            00
  004015AF: 03 0D E4 65 40 00  add         ecx,dword ptr ds:[4065E4h]
  004015B5: 8B 45 D4           mov         eax,dword ptr [ebp-2Ch]
  004015B8: 99                 cdq
  004015B9: 2B C2              sub         eax,edx
  004015BB: D1 F8              sar         eax,1
  004015BD: 03 C8              add         ecx,eax
  004015BF: 89 4D D0           mov         dword ptr [ebp-30h],ecx
  004015C2: F2 0F 2A 45 D0     cvtsi2sd    xmm0,dword ptr [ebp-30h]
  004015C7: 8B 55 D0           mov         edx,dword ptr [ebp-30h]
  004015CA: C1 EA 1F           shr         edx,1Fh
  004015CD: F2 0F 58 04 D5 B0  addsd       xmm0,mmword ptr __xmm@41f00000000000000000000000000000[edx*8]
            51 40 00
  004015D6: F2 0F 2A 4D E8     cvtsi2sd    xmm1,dword ptr [ebp-18h]
  004015DB: F2 0F 59 0D 98 51  mulsd       xmm1,mmword ptr [__real@3fe4cccccccccccd]
            40 00
  004015E3: F2 0F 5C C1        subsd       xmm0,xmm1
  004015E7: B8 08 00 00 00     mov         eax,8
  004015EC: C1 E0 00           shl         eax,0
  004015EF: F2 0F 2C C8        cvttsd2si   ecx,xmm0
  004015F3: 89 4C 05 F0        mov         dword ptr [ebp+eax-10h],ecx
  004015F7: 6A 02              push        2
  004015F9: 8D 55 EC           lea         edx,[ebp-14h]
  004015FC: 52                 push        edx
  004015FD: A1 94 65 40 00     mov         eax,dword ptr [_hdcMem]
  00401602: 50                 push        eax
  00401603: FF 15 0C 50 40 00  call        dword ptr [__imp__Polyline@12]
  00401609: E9 F5 FE FF FF     jmp         00401503
  0040160E: 8B 4D CC           mov         ecx,dword ptr [ebp-34h]
  00401611: 51                 push        ecx
  00401612: FF 15 18 50 40 00  call        dword ptr [__imp__DeleteObject@4]
  00401618: 8B 55 C8           mov         edx,dword ptr [ebp-38h]
  0040161B: 52                 push        edx
  0040161C: FF 15 18 50 40 00  call        dword ptr [__imp__DeleteObject@4]
  00401622: 8B 45 C4           mov         eax,dword ptr [ebp-3Ch]
  00401625: 50                 push        eax
  00401626: FF 15 18 50 40 00  call        dword ptr [__imp__DeleteObject@4]
  0040162C: 8B 4D FC           mov         ecx,dword ptr [ebp-4]
  0040162F: 33 CD              xor         ecx,ebp
  00401631: E8 AE 1E 00 00     call        @__security_check_cookie@4
  00401636: 8B E5              mov         esp,ebp
  00401638: 5D                 pop         ebp
  00401639: C3                 ret
  0040163A: CC CC CC CC CC CC                                ......
_PlayMySound@4:
  00401640: 55                 push        ebp
  00401641: 8B EC              mov         ebp,esp
  00401643: 68 00 00 02 00     push        20000h
  00401648: 6A 00              push        0
  0040164A: 68 C0 60 40 00     push        4060C0h
  0040164F: FF 15 BC 50 40 00  call        dword ptr [__imp__PlaySoundA@12]
  00401655: 5D                 pop         ebp
  00401656: C2 04 00           ret         4
  00401659: CC CC CC CC CC CC CC                             .......
_CreateGame:
  00401660: 55                 push        ebp
  00401661: 8B EC              mov         ebp,esp
  00401663: A1 C8 65 40 00     mov         eax,dword ptr [_hwnd]
  00401668: 50                 push        eax
  00401669: FF 15 90 50 40 00  call        dword ptr [__imp__GetDC@4]
  0040166F: A3 D8 65 40 00     mov         dword ptr [_hdc],eax
  00401674: C7 05 04 66 40 00  mov         dword ptr [_dead],0
            00 00 00 00
  0040167E: C7 05 00 66 40 00  mov         dword ptr [_pause],1
            01 00 00 00
  00401688: F3 0F 10 05 90 51  movss       xmm0,dword ptr [__real@3f000000]
            40 00
  00401690: F3 0F 11 05 8C 65  movss       dword ptr [_zoomRate],xmm0
            40 00
  00401698: E8 53 06 00 00     call        _Resize
  0040169D: E8 AE 10 00 00     call        _CreateRedGame
  004016A2: E8 79 F9 FF FF     call        _CreateBlueGame
  004016A7: E8 04 17 00 00     call        _CreateYellowGame
  004016AC: E8 3F 07 00 00     call        _CreateGreenGame
  004016B1: 6A 00              push        0
  004016B3: 6A 00              push        0
  004016B5: 6A 00              push        0
  004016B7: 68 40 16 40 00     push        offset _PlayMySound@4
  004016BC: 6A 00              push        0
  004016BE: 6A 00              push        0
  004016C0: FF 15 44 50 40 00  call        dword ptr [__imp__CreateThread@24]
  004016C6: 6A 00              push        0
  004016C8: 6A 0A              push        0Ah
  004016CA: 68 F9 37 01 00     push        137F9h
  004016CF: 8B 0D C8 65 40 00  mov         ecx,dword ptr [_hwnd]
  004016D5: 51                 push        ecx
  004016D6: FF 15 80 50 40 00  call        dword ptr [__imp__SetTimer@16]
  004016DC: 5D                 pop         ebp
  004016DD: C3                 ret
  004016DE: CC CC                                            ..
_OnTimer:
  004016E0: 55                 push        ebp
  004016E1: 8B EC              mov         ebp,esp
  004016E3: 51                 push        ecx
  004016E4: 8B 45 08           mov         eax,dword ptr [ebp+8]
  004016E7: 89 45 FC           mov         dword ptr [ebp-4],eax
  004016EA: 8B 4D FC           mov         ecx,dword ptr [ebp-4]
  004016ED: 81 E9 F5 37 01 00  sub         ecx,137F5h
  004016F3: 89 4D FC           mov         dword ptr [ebp-4],ecx
  004016F6: 83 7D FC 04        cmp         dword ptr [ebp-4],4
  004016FA: 0F 87 E8 00 00 00  ja          004017E8
  00401700: 8B 55 FC           mov         edx,dword ptr [ebp-4]
  00401703: FF 24 95 EC 17 40  jmp         dword ptr [edx*4+4017ECh]
            00
  0040170A: E8 11 11 00 00     call        _OnRedTimer
  0040170F: 83 3D 04 66 40 00  cmp         dword ptr [_dead],0
            00
  00401716: 74 25              je          0040173D
  00401718: E8 33 06 00 00     call        _KillAllTimer
  0040171D: 6A 00              push        0
  0040171F: 68 B4 60 40 00     push        4060B4h
  00401724: 68 94 60 40 00     push        406094h
  00401729: A1 C8 65 40 00     mov         eax,dword ptr [_hwnd]
  0040172E: 50                 push        eax
  0040172F: FF 15 8C 50 40 00  call        dword ptr [__imp__MessageBoxA@16]
  00401735: 6A 00              push        0
  00401737: FF 15 64 50 40 00  call        dword ptr [__imp__ExitProcess@4]
  0040173D: E9 A6 00 00 00     jmp         004017E8
  00401742: E8 29 FA FF FF     call        _OnBlueTimer
  00401747: 83 3D 04 66 40 00  cmp         dword ptr [_dead],0
            00
  0040174E: 74 26              je          00401776
  00401750: E8 FB 05 00 00     call        _KillAllTimer
  00401755: 6A 00              push        0
  00401757: 68 88 60 40 00     push        406088h
  0040175C: 68 6C 60 40 00     push        40606Ch
  00401761: 8B 0D C8 65 40 00  mov         ecx,dword ptr [_hwnd]
  00401767: 51                 push        ecx
  00401768: FF 15 8C 50 40 00  call        dword ptr [__imp__MessageBoxA@16]
  0040176E: 6A 00              push        0
  00401770: FF 15 64 50 40 00  call        dword ptr [__imp__ExitProcess@4]
  00401776: EB 70              jmp         004017E8
  00401778: E8 63 08 00 00     call        _OnGreenTimer
  0040177D: 83 3D 04 66 40 00  cmp         dword ptr [_dead],0
            00
  00401784: 74 26              je          004017AC
  00401786: E8 C5 05 00 00     call        _KillAllTimer
  0040178B: 6A 00              push        0
  0040178D: 68 60 60 40 00     push        406060h
  00401792: 68 40 60 40 00     push        406040h
  00401797: 8B 15 C8 65 40 00  mov         edx,dword ptr [_hwnd]
  0040179D: 52                 push        edx
  0040179E: FF 15 8C 50 40 00  call        dword ptr [__imp__MessageBoxA@16]
  004017A4: 6A 00              push        0
  004017A6: FF 15 64 50 40 00  call        dword ptr [__imp__ExitProcess@4]
  004017AC: EB 3A              jmp         004017E8
  004017AE: E8 1D 17 00 00     call        _OnYellowTimer
  004017B3: 83 3D 04 66 40 00  cmp         dword ptr [_dead],0
            00
  004017BA: 74 25              je          004017E1
  004017BC: E8 8F 05 00 00     call        _KillAllTimer
  004017C1: 6A 00              push        0
  004017C3: 68 34 60 40 00     push        406034h
  004017C8: 68 18 60 40 00     push        406018h
  004017CD: A1 C8 65 40 00     mov         eax,dword ptr [_hwnd]
  004017D2: 50                 push        eax
  004017D3: FF 15 8C 50 40 00  call        dword ptr [__imp__MessageBoxA@16]
  004017D9: 6A 00              push        0
  004017DB: FF 15 64 50 40 00  call        dword ptr [__imp__ExitProcess@4]
  004017E1: EB 05              jmp         004017E8
  004017E3: E8 A8 01 00 00     call        _GamePaint
  004017E8: 8B E5              mov         esp,ebp
  004017EA: 5D                 pop         ebp
  004017EB: C3                 ret
  004017EC: 0A 17              or          dl,byte ptr [edi]
  004017EE: 40                 inc         eax
  004017EF: 00 42 17           add         byte ptr [edx+17h],al
  004017F2: 40                 inc         eax
  004017F3: 00 78 17           add         byte ptr [eax+17h],bh
  004017F6: 40                 inc         eax
  004017F7: 00 AE 17 40 00 E3  add         byte ptr [esi-1CFFBFE9h],ch
  004017FD: 17                 pop         ss
  004017FE: 40                 inc         eax
  004017FF: 00
_OnKeyDown:
  00401800: 55                 push        ebp
  00401801: 8B EC              mov         ebp,esp
  00401803: 83 EC 08           sub         esp,8
  00401806: 8B 45 08           mov         eax,dword ptr [ebp+8]
  00401809: 89 45 FC           mov         dword ptr [ebp-4],eax
  0040180C: 8B 4D FC           mov         ecx,dword ptr [ebp-4]
  0040180F: 83 E9 20           sub         ecx,20h
  00401812: 89 4D FC           mov         dword ptr [ebp-4],ecx
  00401815: 83 7D FC 37        cmp         dword ptr [ebp-4],37h
  00401819: 77 6B              ja          00401886
  0040181B: 8B 55 FC           mov         edx,dword ptr [ebp-4]
  0040181E: 0F B6 82 A4 18 40  movzx       eax,byte ptr [edx+4018A4h]
            00
  00401825: FF 24 85 8C 18 40  jmp         dword ptr [eax*4+40188Ch]
            00
  0040182C: 83 3D 00 66 40 00  cmp         dword ptr [_pause],0
            00
  00401833: 75 09              jne         0040183E
  00401835: C7 45 F8 01 00 00  mov         dword ptr [ebp-8],1
            00
  0040183C: EB 07              jmp         00401845
  0040183E: C7 45 F8 00 00 00  mov         dword ptr [ebp-8],0
            00
  00401845: 8B 4D F8           mov         ecx,dword ptr [ebp-8]
  00401848: 89 0D 00 66 40 00  mov         dword ptr [_pause],ecx
  0040184E: EB 36              jmp         00401886
  00401850: 8B 55 08           mov         edx,dword ptr [ebp+8]
  00401853: 52                 push        edx
  00401854: E8 67 11 00 00     call        _OnRedKeyDown
  00401859: 83 C4 04           add         esp,4
  0040185C: EB 28              jmp         00401886
  0040185E: 8B 45 08           mov         eax,dword ptr [ebp+8]
  00401861: 50                 push        eax
  00401862: E8 89 FA FF FF     call        _OnBlueKeyDown
  00401867: 83 C4 04           add         esp,4
  0040186A: EB 1A              jmp         00401886
  0040186C: 8B 4D 08           mov         ecx,dword ptr [ebp+8]
  0040186F: 51                 push        ecx
  00401870: E8 7B 19 00 00     call        _OnYellowKeyDown
  00401875: 83 C4 04           add         esp,4
  00401878: EB 0C              jmp         00401886
  0040187A: 8B 55 08           mov         edx,dword ptr [ebp+8]
  0040187D: 52                 push        edx
  0040187E: E8 3D 0A 00 00     call        _OnGreenKeyDown
  00401883: 83 C4 04           add         esp,4
  00401886: 8B E5              mov         esp,ebp
  00401888: 5D                 pop         ebp
  00401889: C3                 ret
  0040188A: 66 90              xchg        ax,ax
  0040188C: 6C                 ins         byte ptr es:[edi],dx
  0040188D: 18 40 00           sbb         byte ptr [eax],al
  00401890: 50                 push        eax
  00401891: 18 40 00           sbb         byte ptr [eax],al
  00401894: 5E                 pop         esi
  00401895: 18 40 00           sbb         byte ptr [eax],al
  00401898: 7A 18              jp          004018B2
  0040189A: 40                 inc         eax
  0040189B: 00 2C 18           add         byte ptr [eax+ebx],ch
  0040189E: 40                 inc         eax
  0040189F: 00 86 18 40 00 00  add         byte ptr [esi+4018h],al
  004018A5: 05 05 05 05 01     add         eax,1050505h
  004018AA: 02 01              add         al,byte ptr [ecx]
  004018AC: 02 05 05 05 05 05  add         al,byte ptr ds:[5050505h]
  004018B2: 05 05 05 05 05     add         eax,5050505h
  004018B7: 05 05 05 05 05     add         eax,5050505h
  004018BC: 05 05 05 05 05     add         eax,5050505h
  004018C1: 05 05 05 05 03     add         eax,3050505h
  004018C6: 05 05 03 05 05     add         eax,5050305h
  004018CB: 05 05 05 05 05     add         eax,5050505h
  004018D0: 05 05 05 05 04     add         eax,4050505h
  004018D5: 05 05 03 05 05     add         eax,5050305h
  004018DA: 05
  004018DB: 03
  004018DC: CC CC CC CC                                      ....
_OnKeyUp:
  004018E0: 55                 push        ebp
  004018E1: 8B EC              mov         ebp,esp
  004018E3: 51                 push        ecx
  004018E4: 8B 45 08           mov         eax,dword ptr [ebp+8]
  004018E7: 89 45 FC           mov         dword ptr [ebp-4],eax
  004018EA: 8B 4D FC           mov         ecx,dword ptr [ebp-4]
  004018ED: 83 E9 20           sub         ecx,20h
  004018F0: 89 4D FC           mov         dword ptr [ebp-4],ecx
  004018F3: 83 7D FC 37        cmp         dword ptr [ebp-4],37h
  004018F7: 77 47              ja          00401940
  004018F9: 8B 55 FC           mov         edx,dword ptr [ebp-4]
  004018FC: 0F B6 82 58 19 40  movzx       eax,byte ptr [edx+401958h]
            00
  00401903: FF 24 85 44 19 40  jmp         dword ptr [eax*4+401944h]
            00
  0040190A: 8B 4D 08           mov         ecx,dword ptr [ebp+8]
  0040190D: 51                 push        ecx
  0040190E: E8 ED 10 00 00     call        _OnRedKeyUp
  00401913: 83 C4 04           add         esp,4
  00401916: EB 28              jmp         00401940
  00401918: 8B 55 08           mov         edx,dword ptr [ebp+8]
  0040191B: 52                 push        edx
  0040191C: E8 2F FA FF FF     call        _OnBlueKeyUp
  00401921: 83 C4 04           add         esp,4
  00401924: EB 1A              jmp         00401940
  00401926: 8B 45 08           mov         eax,dword ptr [ebp+8]
  00401929: 50                 push        eax
  0040192A: E8 E1 18 00 00     call        _OnYellowKeyUp
  0040192F: 83 C4 04           add         esp,4
  00401932: EB 0C              jmp         00401940
  00401934: 8B 4D 08           mov         ecx,dword ptr [ebp+8]
  00401937: 51                 push        ecx
  00401938: E8 13 0A 00 00     call        _OnGreenKeyUp
  0040193D: 83 C4 04           add         esp,4
  00401940: 8B E5              mov         esp,ebp
  00401942: 5D                 pop         ebp
  00401943: C3                 ret
  00401944: 26 19 40 00        sbb         dword ptr es:[eax],eax
  00401948: 0A 19              or          bl,byte ptr [ecx]
  0040194A: 40                 inc         eax
  0040194B: 00 18              add         byte ptr [eax],bl
  0040194D: 19 40 00           sbb         dword ptr [eax],eax
  00401950: 34 19              xor         al,19h
  00401952: 40                 inc         eax
  00401953: 00 40 19           add         byte ptr [eax+19h],al
  00401956: 40                 inc         eax
  00401957: 00 00              add         byte ptr [eax],al
  00401959: 04 04              add         al,4
  0040195B: 04 04              add         al,4
  0040195D: 01 02              add         dword ptr [edx],eax
  0040195F: 01 02              add         dword ptr [edx],eax
  00401961: 04 04              add         al,4
  00401963: 04 04              add         al,4
  00401965: 04 04              add         al,4
  00401967: 04 04              add         al,4
  00401969: 04 04              add         al,4
  0040196B: 04 04              add         al,4
  0040196D: 04 04              add         al,4
  0040196F: 04 04              add         al,4
  00401971: 04 04              add         al,4
  00401973: 04 04              add         al,4
  00401975: 04 04              add         al,4
  00401977: 04 04              add         al,4
  00401979: 03 04 04           add         eax,dword ptr [esp+eax]
  0040197C: 03 04 04           add         eax,dword ptr [esp+eax]
  0040197F: 04 04              add         al,4
  00401981: 04 04              add         al,4
  00401983: 04 04              add         al,4
  00401985: 04 04              add         al,4
  00401987: 04 04              add         al,4
  00401989: 04 04              add         al,4
  0040198B: 03 04 04           add         eax,dword ptr [esp+eax]
  0040198E: 04 03              add         al,3
_GamePaint:
  00401990: 55                 push        ebp
  00401991: 8B EC              mov         ebp,esp
  00401993: 83 EC 08           sub         esp,8
  00401996: A1 D8 65 40 00     mov         eax,dword ptr [_hdc]
  0040199B: 50                 push        eax
  0040199C: FF 15 04 50 40 00  call        dword ptr [__imp__CreateCompatibleDC@4]
  004019A2: A3 94 65 40 00     mov         dword ptr [_hdcMem],eax
  004019A7: 8B 0D 2C 66 40 00  mov         ecx,dword ptr ds:[40662Ch]
  004019AD: 2B 0D 24 66 40 00  sub         ecx,dword ptr ds:[406624h]
  004019B3: 51                 push        ecx
  004019B4: 8B 15 28 66 40 00  mov         edx,dword ptr ds:[406628h]
  004019BA: 2B 15 20 66 40 00  sub         edx,dword ptr [_rect]
  004019C0: 52                 push        edx
  004019C1: A1 D8 65 40 00     mov         eax,dword ptr [_hdc]
  004019C6: 50                 push        eax
  004019C7: FF 15 28 50 40 00  call        dword ptr [__imp__CreateCompatibleBitmap@12]
  004019CD: 89 45 F8           mov         dword ptr [ebp-8],eax
  004019D0: E8 FB 03 00 00     call        _transparentPen
  004019D5: 89 45 FC           mov         dword ptr [ebp-4],eax
  004019D8: 8B 4D F8           mov         ecx,dword ptr [ebp-8]
  004019DB: 51                 push        ecx
  004019DC: 8B 15 94 65 40 00  mov         edx,dword ptr [_hdcMem]
  004019E2: 52                 push        edx
  004019E3: FF 15 08 50 40 00  call        dword ptr [__imp__SelectObject@8]
  004019E9: 8B 45 FC           mov         eax,dword ptr [ebp-4]
  004019EC: 50                 push        eax
  004019ED: 8B 0D 94 65 40 00  mov         ecx,dword ptr [_hdcMem]
  004019F3: 51                 push        ecx
  004019F4: FF 15 08 50 40 00  call        dword ptr [__imp__SelectObject@8]
  004019FA: E8 41 10 00 00     call        _RedGamePaint
  004019FF: 8B 55 FC           mov         edx,dword ptr [ebp-4]
  00401A02: 52                 push        edx
  00401A03: A1 94 65 40 00     mov         eax,dword ptr [_hdcMem]
  00401A08: 50                 push        eax
  00401A09: FF 15 08 50 40 00  call        dword ptr [__imp__SelectObject@8]
  00401A0F: E8 4C F9 FF FF     call        _BlueGamePaint
  00401A14: 8B 4D FC           mov         ecx,dword ptr [ebp-4]
  00401A17: 51                 push        ecx
  00401A18: 8B 15 94 65 40 00  mov         edx,dword ptr [_hdcMem]
  00401A1E: 52                 push        edx
  00401A1F: FF 15 08 50 40 00  call        dword ptr [__imp__SelectObject@8]
  00401A25: E8 06 18 00 00     call        _YellowGamePaint
  00401A2A: 8B 45 FC           mov         eax,dword ptr [ebp-4]
  00401A2D: 50                 push        eax
  00401A2E: 8B 0D 94 65 40 00  mov         ecx,dword ptr [_hdcMem]
  00401A34: 51                 push        ecx
  00401A35: FF 15 08 50 40 00  call        dword ptr [__imp__SelectObject@8]
  00401A3B: E8 A0 09 00 00     call        _GreenGamePaint
  00401A40: 68 20 00 CC 00     push        0CC0020h
  00401A45: 6A 00              push        0
  00401A47: 6A 00              push        0
  00401A49: 8B 15 94 65 40 00  mov         edx,dword ptr [_hdcMem]
  00401A4F: 52                 push        edx
  00401A50: A1 2C 66 40 00     mov         eax,dword ptr ds:[0040662Ch]
  00401A55: 2B 05 24 66 40 00  sub         eax,dword ptr ds:[406624h]
  00401A5B: 50                 push        eax
  00401A5C: 8B 0D 28 66 40 00  mov         ecx,dword ptr ds:[406628h]
  00401A62: 2B 0D 20 66 40 00  sub         ecx,dword ptr [_rect]
  00401A68: 51                 push        ecx
  00401A69: 6A 00              push        0
  00401A6B: 6A 00              push        0
  00401A6D: 8B 15 D8 65 40 00  mov         edx,dword ptr [_hdc]
  00401A73: 52                 push        edx
  00401A74: FF 15 20 50 40 00  call        dword ptr [__imp__BitBlt@36]
  00401A7A: 8B 45 F8           mov         eax,dword ptr [ebp-8]
  00401A7D: 50                 push        eax
  00401A7E: FF 15 18 50 40 00  call        dword ptr [__imp__DeleteObject@4]
  00401A84: 8B 0D 94 65 40 00  mov         ecx,dword ptr [_hdcMem]
  00401A8A: 51                 push        ecx
  00401A8B: FF 15 18 50 40 00  call        dword ptr [__imp__DeleteObject@4]
  00401A91: 8B E5              mov         esp,ebp
  00401A93: 5D                 pop         ebp
  00401A94: C3                 ret
  00401A95: CC CC CC CC CC CC CC CC CC CC CC                 ...........
_ResizeRedPart:
  00401AA0: 55                 push        ebp
  00401AA1: 8B EC              mov         ebp,esp
  00401AA3: 0F BF 05 80 65 40  movsx       eax,word ptr [_left]
            00
  00401AAA: 0F BF 0D 90 65 40  movsx       ecx,word ptr [_right]
            00
  00401AB1: 03 C1              add         eax,ecx
  00401AB3: F3 0F 2A C0        cvtsi2ss    xmm0,eax
  00401AB7: F3 0F 59 05 8C 65  mulss       xmm0,dword ptr [_zoomRate]
            40 00
  00401ABF: F3 0F 2C D0        cvttss2si   edx,xmm0
  00401AC3: 66 89 15 82 65 40  mov         word ptr [_midX],dx
            00
  00401ACA: 0F BF 05 86 65 40  movsx       eax,word ptr [_top]
            00
  00401AD1: 0F BF 0D 84 65 40  movsx       ecx,word ptr [_bottom]
            00
  00401AD8: 03 C1              add         eax,ecx
  00401ADA: F3 0F 2A C0        cvtsi2ss    xmm0,eax
  00401ADE: F3 0F 59 05 8C 65  mulss       xmm0,dword ptr [_zoomRate]
            40 00
  00401AE6: F3 0F 2C D0        cvttss2si   edx,xmm0
  00401AEA: 66 89 15 88 65 40  mov         word ptr [_midY],dx
            00
  00401AF1: 0F BF 05 80 65 40  movsx       eax,word ptr [_left]
            00
  00401AF8: A3 30 66 40 00     mov         dword ptr [_redRect],eax
  00401AFD: 0F BF 0D 86 65 40  movsx       ecx,word ptr [_top]
            00
  00401B04: 89 0D 34 66 40 00  mov         dword ptr ds:[406634h],ecx
  00401B0A: 0F BF 15 82 65 40  movsx       edx,word ptr [_midX]
            00
  00401B11: 89 15 38 66 40 00  mov         dword ptr ds:[406638h],edx
  00401B17: 0F BF 05 88 65 40  movsx       eax,word ptr [_midY]
            00
  00401B1E: A3 3C 66 40 00     mov         dword ptr ds:[0040663Ch],eax
  00401B23: 5D                 pop         ebp
  00401B24: C3                 ret
  00401B25: CC CC CC CC CC CC CC CC CC CC CC                 ...........
_ResizeBluePart:
  00401B30: 55                 push        ebp
  00401B31: 8B EC              mov         ebp,esp
  00401B33: 0F BF 05 80 65 40  movsx       eax,word ptr [_left]
            00
  00401B3A: 0F BF 0D 90 65 40  movsx       ecx,word ptr [_right]
            00
  00401B41: 03 C1              add         eax,ecx
  00401B43: F3 0F 2A C0        cvtsi2ss    xmm0,eax
  00401B47: F3 0F 59 05 8C 65  mulss       xmm0,dword ptr [_zoomRate]
            40 00
  00401B4F: F3 0F 2C D0        cvttss2si   edx,xmm0
  00401B53: 66 89 15 82 65 40  mov         word ptr [_midX],dx
            00
  00401B5A: 0F BF 05 86 65 40  movsx       eax,word ptr [_top]
            00
  00401B61: 0F BF 0D 84 65 40  movsx       ecx,word ptr [_bottom]
            00
  00401B68: 03 C1              add         eax,ecx
  00401B6A: F3 0F 2A C0        cvtsi2ss    xmm0,eax
  00401B6E: F3 0F 59 05 8C 65  mulss       xmm0,dword ptr [_zoomRate]
            40 00
  00401B76: F3 0F 2C D0        cvttss2si   edx,xmm0
  00401B7A: 66 89 15 88 65 40  mov         word ptr [_midY],dx
            00
  00401B81: 0F BF 05 90 65 40  movsx       eax,word ptr [_right]
            00
  00401B88: 0F BF 0D 82 65 40  movsx       ecx,word ptr [_midX]
            00
  00401B8F: 2B C1              sub         eax,ecx
  00401B91: A3 E0 65 40 00     mov         dword ptr [_blueRect],eax
  00401B96: 0F BF 15 86 65 40  movsx       edx,word ptr [_top]
            00
  00401B9D: 89 15 E4 65 40 00  mov         dword ptr ds:[4065E4h],edx
  00401BA3: 0F BF 05 90 65 40  movsx       eax,word ptr [_right]
            00
  00401BAA: A3 E8 65 40 00     mov         dword ptr ds:[004065E8h],eax
  00401BAF: 0F BF 0D 88 65 40  movsx       ecx,word ptr [_midY]
            00
  00401BB6: 89 0D EC 65 40 00  mov         dword ptr ds:[4065ECh],ecx
  00401BBC: 5D                 pop         ebp
  00401BBD: C3                 ret
  00401BBE: CC CC                                            ..
_ResizeYellowPart:
  00401BC0: 55                 push        ebp
  00401BC1: 8B EC              mov         ebp,esp
  00401BC3: 0F BF 05 80 65 40  movsx       eax,word ptr [_left]
            00
  00401BCA: 0F BF 0D 90 65 40  movsx       ecx,word ptr [_right]
            00
  00401BD1: 03 C1              add         eax,ecx
  00401BD3: F3 0F 2A C0        cvtsi2ss    xmm0,eax
  00401BD7: F3 0F 59 05 8C 65  mulss       xmm0,dword ptr [_zoomRate]
            40 00
  00401BDF: F3 0F 2C D0        cvttss2si   edx,xmm0
  00401BE3: 66 89 15 82 65 40  mov         word ptr [_midX],dx
            00
  00401BEA: 0F BF 05 86 65 40  movsx       eax,word ptr [_top]
            00
  00401BF1: 0F BF 0D 84 65 40  movsx       ecx,word ptr [_bottom]
            00
  00401BF8: 03 C1              add         eax,ecx
  00401BFA: F3 0F 2A C0        cvtsi2ss    xmm0,eax
  00401BFE: F3 0F 59 05 8C 65  mulss       xmm0,dword ptr [_zoomRate]
            40 00
  00401C06: F3 0F 2C D0        cvttss2si   edx,xmm0
  00401C0A: 66 89 15 88 65 40  mov         word ptr [_midY],dx
            00
  00401C11: 0F BF 05 80 65 40  movsx       eax,word ptr [_left]
            00
  00401C18: A3 10 66 40 00     mov         dword ptr [_yellowRect],eax
  00401C1D: 0F BF 0D 84 65 40  movsx       ecx,word ptr [_bottom]
            00
  00401C24: 0F BF 15 88 65 40  movsx       edx,word ptr [_midY]
            00
  00401C2B: 2B CA              sub         ecx,edx
  00401C2D: 89 0D 14 66 40 00  mov         dword ptr ds:[406614h],ecx
  00401C33: 0F BF 05 82 65 40  movsx       eax,word ptr [_midX]
            00
  00401C3A: A3 18 66 40 00     mov         dword ptr ds:[00406618h],eax
  00401C3F: 0F BF 0D 84 65 40  movsx       ecx,word ptr [_bottom]
            00
  00401C46: 89 0D 1C 66 40 00  mov         dword ptr ds:[40661Ch],ecx
  00401C4C: 5D                 pop         ebp
  00401C4D: C3                 ret
  00401C4E: CC CC                                            ..
_ResizeGreenPart:
  00401C50: 55                 push        ebp
  00401C51: 8B EC              mov         ebp,esp
  00401C53: 0F BF 05 80 65 40  movsx       eax,word ptr [_left]
            00
  00401C5A: 0F BF 0D 90 65 40  movsx       ecx,word ptr [_right]
            00
  00401C61: 03 C1              add         eax,ecx
  00401C63: F3 0F 2A C0        cvtsi2ss    xmm0,eax
  00401C67: F3 0F 59 05 8C 65  mulss       xmm0,dword ptr [_zoomRate]
            40 00
  00401C6F: F3 0F 2C D0        cvttss2si   edx,xmm0
  00401C73: 66 89 15 82 65 40  mov         word ptr [_midX],dx
            00
  00401C7A: 0F BF 05 86 65 40  movsx       eax,word ptr [_top]
            00
  00401C81: 0F BF 0D 84 65 40  movsx       ecx,word ptr [_bottom]
            00
  00401C88: 03 C1              add         eax,ecx
  00401C8A: F3 0F 2A C0        cvtsi2ss    xmm0,eax
  00401C8E: F3 0F 59 05 8C 65  mulss       xmm0,dword ptr [_zoomRate]
            40 00
  00401C96: F3 0F 2C D0        cvttss2si   edx,xmm0
  00401C9A: 66 89 15 88 65 40  mov         word ptr [_midY],dx
            00
  00401CA1: 0F BF 05 90 65 40  movsx       eax,word ptr [_right]
            00
  00401CA8: 0F BF 0D 82 65 40  movsx       ecx,word ptr [_midX]
            00
  00401CAF: 2B C1              sub         eax,ecx
  00401CB1: A3 F0 65 40 00     mov         dword ptr [_greenRect],eax
  00401CB6: 0F BF 15 84 65 40  movsx       edx,word ptr [_bottom]
            00
  00401CBD: 0F BF 05 88 65 40  movsx       eax,word ptr [_midY]
            00
  00401CC4: 2B D0              sub         edx,eax
  00401CC6: 89 15 F4 65 40 00  mov         dword ptr ds:[4065F4h],edx
  00401CCC: 0F BF 0D 90 65 40  movsx       ecx,word ptr [_right]
            00
  00401CD3: 89 0D F8 65 40 00  mov         dword ptr ds:[4065F8h],ecx
  00401CD9: 0F BF 15 84 65 40  movsx       edx,word ptr [_bottom]
            00
  00401CE0: 89 15 FC 65 40 00  mov         dword ptr ds:[4065FCh],edx
  00401CE6: 5D                 pop         ebp
  00401CE7: C3                 ret
  00401CE8: CC CC CC CC CC CC CC CC                          ........
_Resize:
  00401CF0: 55                 push        ebp
  00401CF1: 8B EC              mov         ebp,esp
  00401CF3: 68 20 66 40 00     push        offset _rect
  00401CF8: A1 C8 65 40 00     mov         eax,dword ptr [_hwnd]
  00401CFD: 50                 push        eax
  00401CFE: FF 15 88 50 40 00  call        dword ptr [__imp__GetClientRect@8]
  00401D04: 66 8B 0D 20 66 40  mov         cx,word ptr [_rect]
            00
  00401D0B: 66 89 0D 80 65 40  mov         word ptr [_left],cx
            00
  00401D12: 66 8B 15 24 66 40  mov         dx,word ptr ds:[406624h]
            00
  00401D19: 66 89 15 86 65 40  mov         word ptr [_top],dx
            00
  00401D20: 66 A1 28 66 40 00  mov         ax,word ptr ds:[00406628h]
  00401D26: 66 A3 90 65 40 00  mov         word ptr [_right],ax
  00401D2C: 66 8B 0D 2C 66 40  mov         cx,word ptr ds:[40662Ch]
            00
  00401D33: 66 89 0D 84 65 40  mov         word ptr [_bottom],cx
            00
  00401D3A: E8 61 FD FF FF     call        _ResizeRedPart
  00401D3F: E8 EC FD FF FF     call        _ResizeBluePart
  00401D44: E8 77 FE FF FF     call        _ResizeYellowPart
  00401D49: E8 02 FF FF FF     call        _ResizeGreenPart
  00401D4E: 5D                 pop         ebp
  00401D4F: C3                 ret
_KillAllTimer:
  00401D50: 55                 push        ebp
  00401D51: 8B EC              mov         ebp,esp
  00401D53: 68 F5 37 01 00     push        137F5h
  00401D58: A1 C8 65 40 00     mov         eax,dword ptr [_hwnd]
  00401D5D: 50                 push        eax
  00401D5E: FF 15 84 50 40 00  call        dword ptr [__imp__KillTimer@8]
  00401D64: 68 F6 37 01 00     push        137F6h
  00401D69: 8B 0D C8 65 40 00  mov         ecx,dword ptr [_hwnd]
  00401D6F: 51                 push        ecx
  00401D70: FF 15 84 50 40 00  call        dword ptr [__imp__KillTimer@8]
  00401D76: 68 F7 37 01 00     push        137F7h
  00401D7B: 8B 15 C8 65 40 00  mov         edx,dword ptr [_hwnd]
  00401D81: 52                 push        edx
  00401D82: FF 15 84 50 40 00  call        dword ptr [__imp__KillTimer@8]
  00401D88: 68 F8 37 01 00     push        137F8h
  00401D8D: A1 C8 65 40 00     mov         eax,dword ptr [_hwnd]
  00401D92: 50                 push        eax
  00401D93: FF 15 84 50 40 00  call        dword ptr [__imp__KillTimer@8]
  00401D99: 68 F9 37 01 00     push        137F9h
  00401D9E: 8B 0D C8 65 40 00  mov         ecx,dword ptr [_hwnd]
  00401DA4: 51                 push        ecx
  00401DA5: FF 15 84 50 40 00  call        dword ptr [__imp__KillTimer@8]
  00401DAB: 5D                 pop         ebp
  00401DAC: C3                 ret
  00401DAD: CC CC CC                                         ...
_blackPen:
  00401DB0: 55                 push        ebp
  00401DB1: 8B EC              mov         ebp,esp
  00401DB3: 6A 00              push        0
  00401DB5: 8B 45 08           mov         eax,dword ptr [ebp+8]
  00401DB8: 50                 push        eax
  00401DB9: 6A 00              push        0
  00401DBB: FF 15 10 50 40 00  call        dword ptr [__imp__CreatePen@12]
  00401DC1: 5D                 pop         ebp
  00401DC2: C3                 ret
  00401DC3: CC CC CC CC CC CC CC CC CC CC CC CC CC           .............
_transparentPen:
  00401DD0: 55                 push        ebp
  00401DD1: 8B EC              mov         ebp,esp
  00401DD3: 6A 00              push        0
  00401DD5: 6A 00              push        0
  00401DD7: 6A 05              push        5
  00401DD9: FF 15 10 50 40 00  call        dword ptr [__imp__CreatePen@12]
  00401DDF: 5D                 pop         ebp
  00401DE0: C3                 ret
  00401DE1: CC CC CC CC CC CC CC CC CC CC CC CC CC CC CC     ...............
_CreateGreenGame:
  00401DF0: 55                 push        ebp
  00401DF1: 8B EC              mov         ebp,esp
  00401DF3: 83 EC 28           sub         esp,28h
  00401DF6: A1 F8 65 40 00     mov         eax,dword ptr ds:[004065F8h]
  00401DFB: 2B 05 F0 65 40 00  sub         eax,dword ptr [_greenRect]
  00401E01: 89 45 F8           mov         dword ptr [ebp-8],eax
  00401E04: 8B 0D FC 65 40 00  mov         ecx,dword ptr ds:[4065FCh]
  00401E0A: 2B 0D F4 65 40 00  sub         ecx,dword ptr ds:[4065F4h]
  00401E10: 89 4D F0           mov         dword ptr [ebp-10h],ecx
  00401E13: 8B 45 F8           mov         eax,dword ptr [ebp-8]
  00401E16: 99                 cdq
  00401E17: 2B C2              sub         eax,edx
  00401E19: D1 F8              sar         eax,1
  00401E1B: A3 18 65 40 00     mov         dword ptr [_rectanglePosition],eax
  00401E20: 8B 45 F0           mov         eax,dword ptr [ebp-10h]
  00401E23: 99                 cdq
  00401E24: 2B C2              sub         eax,edx
  00401E26: D1 F8              sar         eax,1
  00401E28: A3 1C 65 40 00     mov         dword ptr ds:[0040651Ch],eax
  00401E2D: 8B 45 F8           mov         eax,dword ptr [ebp-8]
  00401E30: 99                 cdq
  00401E31: B9 14 00 00 00     mov         ecx,14h
  00401E36: F7 F9              idiv        eax,ecx
  00401E38: A3 24 65 40 00     mov         dword ptr [_rectangleSize],eax
  00401E3D: 8B 15 24 65 40 00  mov         edx,dword ptr [_rectangleSize]
  00401E43: C1 EA 02           shr         edx,2
  00401E46: 89 15 2C 65 40 00  mov         dword ptr [_rectangleSpeed],edx
  00401E4C: A1 24 65 40 00     mov         eax,dword ptr [_rectangleSize]
  00401E51: A3 78 65 40 00     mov         dword ptr [_enemySize],eax
  00401E56: A1 2C 65 40 00     mov         eax,dword ptr [_rectangleSpeed]
  00401E5B: 33 D2              xor         edx,edx
  00401E5D: B9 05 00 00 00     mov         ecx,5
  00401E62: F7 F1              div         eax,ecx
  00401E64: 89 45 F4           mov         dword ptr [ebp-0Ch],eax
  00401E67: F2 0F 2A 45 F4     cvtsi2sd    xmm0,dword ptr [ebp-0Ch]
  00401E6C: 8B 55 F4           mov         edx,dword ptr [ebp-0Ch]
  00401E6F: C1 EA 1F           shr         edx,1Fh
  00401E72: F2 0F 58 04 D5 B0  addsd       xmm0,mmword ptr __xmm@41f00000000000000000000000000000[edx*8]
            51 40 00
  00401E7B: F2 0F 11 45 D8     movsd       mmword ptr [ebp-28h],xmm0
  00401E80: F2 0F 5A 45 D8     cvtsd2ss    xmm0,mmword ptr [ebp-28h]
  00401E85: F3 0F 11 05 14 65  movss       dword ptr [_enemySpeed],xmm0
            40 00
  00401E8D: C7 45 FC 00 00 00  mov         dword ptr [ebp-4],0
            00
  00401E94: EB 09              jmp         00401E9F
  00401E96: 8B 45 FC           mov         eax,dword ptr [ebp-4]
  00401E99: 83 C0 01           add         eax,1
  00401E9C: 89 45 FC           mov         dword ptr [ebp-4],eax
  00401E9F: 83 7D FC 03        cmp         dword ptr [ebp-4],3
  00401EA3: 0F 8D 0E 01 00 00  jge         00401FB7
  00401EA9: FF 15 48 51 40 00  call        dword ptr [__imp__rand]
  00401EAF: 99                 cdq
  00401EB0: F7 7D F8           idiv        eax,dword ptr [ebp-8]
  00401EB3: 8B 4D FC           mov         ecx,dword ptr [ebp-4]
  00401EB6: 89 14 CD 60 65 40  mov         dword ptr _enemyPosition[ecx*8],edx
            00
  00401EBD: FF 15 48 51 40 00  call        dword ptr [__imp__rand]
  00401EC3: 99                 cdq
  00401EC4: F7 7D F0           idiv        eax,dword ptr [ebp-10h]
  00401EC7: 8B 45 FC           mov         eax,dword ptr [ebp-4]
  00401ECA: 89 14 C5 64 65 40  mov         dword ptr [eax*8+406564h],edx
            00
  00401ED1: 8B 4D FC           mov         ecx,dword ptr [ebp-4]
  00401ED4: 8B 14 CD 60 65 40  mov         edx,dword ptr _enemyPosition[ecx*8]
            00
  00401EDB: 2B 15 18 65 40 00  sub         edx,dword ptr [_rectanglePosition]
  00401EE1: 85 D2              test        edx,edx
  00401EE3: 7E 15              jle         00401EFA
  00401EE5: 8B 45 FC           mov         eax,dword ptr [ebp-4]
  00401EE8: 8B 0C C5 60 65 40  mov         ecx,dword ptr _enemyPosition[eax*8]
            00
  00401EEF: 2B 0D 18 65 40 00  sub         ecx,dword ptr [_rectanglePosition]
  00401EF5: 89 4D EC           mov         dword ptr [ebp-14h],ecx
  00401EF8: EB 15              jmp         00401F0F
  00401EFA: 8B 55 FC           mov         edx,dword ptr [ebp-4]
  00401EFD: 8B 04 D5 60 65 40  mov         eax,dword ptr _enemyPosition[edx*8]
            00
  00401F04: 2B 05 18 65 40 00  sub         eax,dword ptr [_rectanglePosition]
  00401F0A: F7 D8              neg         eax
  00401F0C: 89 45 EC           mov         dword ptr [ebp-14h],eax
  00401F0F: 8B 4D FC           mov         ecx,dword ptr [ebp-4]
  00401F12: 8B 14 CD 64 65 40  mov         edx,dword ptr [ecx*8+406564h]
            00
  00401F19: 2B 15 1C 65 40 00  sub         edx,dword ptr ds:[40651Ch]
  00401F1F: 85 D2              test        edx,edx
  00401F21: 7E 15              jle         00401F38
  00401F23: 8B 45 FC           mov         eax,dword ptr [ebp-4]
  00401F26: 8B 0C C5 64 65 40  mov         ecx,dword ptr [eax*8+406564h]
            00
  00401F2D: 2B 0D 1C 65 40 00  sub         ecx,dword ptr ds:[40651Ch]
  00401F33: 89 4D E8           mov         dword ptr [ebp-18h],ecx
  00401F36: EB 15              jmp         00401F4D
  00401F38: 8B 55 FC           mov         edx,dword ptr [ebp-4]
  00401F3B: 8B 04 D5 64 65 40  mov         eax,dword ptr [edx*8+406564h]
            00
  00401F42: 2B 05 1C 65 40 00  sub         eax,dword ptr ds:[40651Ch]
  00401F48: F7 D8              neg         eax
  00401F4A: 89 45 E8           mov         dword ptr [ebp-18h],eax
  00401F4D: 8B 4D EC           mov         ecx,dword ptr [ebp-14h]
  00401F50: 03 4D E8           add         ecx,dword ptr [ebp-18h]
  00401F53: 6B 15 2C 65 40 00  imul        edx,dword ptr [_rectangleSpeed],14h
            14
  00401F5A: 3B CA              cmp         ecx,edx
  00401F5C: 0F 82 47 FF FF FF  jb          00401EA9
  00401F62: FF 15 48 51 40 00  call        dword ptr [__imp__rand]
  00401F68: 83 E0 01           and         eax,1
  00401F6B: 74 09              je          00401F76
  00401F6D: C7 45 E4 01 00 00  mov         dword ptr [ebp-1Ch],1
            00
  00401F74: EB 07              jmp         00401F7D
  00401F76: C7 45 E4 FF FF FF  mov         dword ptr [ebp-1Ch],0FFFFFFFFh
            FF
  00401F7D: 8B 45 FC           mov         eax,dword ptr [ebp-4]
  00401F80: 8B 4D E4           mov         ecx,dword ptr [ebp-1Ch]
  00401F83: 89 0C C5 40 65 40  mov         dword ptr _enemyDirection[eax*8],ecx
            00
  00401F8A: FF 15 48 51 40 00  call        dword ptr [__imp__rand]
  00401F90: 83 E0 01           and         eax,1
  00401F93: 74 09              je          00401F9E
  00401F95: C7 45 E0 01 00 00  mov         dword ptr [ebp-20h],1
            00
  00401F9C: EB 07              jmp         00401FA5
  00401F9E: C7 45 E0 FF FF FF  mov         dword ptr [ebp-20h],0FFFFFFFFh
            FF
  00401FA5: 8B 55 FC           mov         edx,dword ptr [ebp-4]
  00401FA8: 8B 45 E0           mov         eax,dword ptr [ebp-20h]
  00401FAB: 89 04 D5 44 65 40  mov         dword ptr [edx*8+406544h],eax
            00
  00401FB2: E9 DF FE FF FF     jmp         00401E96
  00401FB7: 6A 00              push        0
  00401FB9: 6A 14              push        14h
  00401FBB: 68 F7 37 01 00     push        137F7h
  00401FC0: 8B 0D C8 65 40 00  mov         ecx,dword ptr [_hwnd]
  00401FC6: 51                 push        ecx
  00401FC7: FF 15 80 50 40 00  call        dword ptr [__imp__SetTimer@16]
  00401FCD: 8B E5              mov         esp,ebp
  00401FCF: 5D                 pop         ebp
  00401FD0: C3                 ret
  00401FD1: CC CC CC CC CC CC CC CC CC CC CC CC CC CC CC     ...............
_OnGreenTimer:
  00401FE0: 55                 push        ebp
  00401FE1: 8B EC              mov         ebp,esp
  00401FE3: 83 EC 14           sub         esp,14h
  00401FE6: A1 F8 65 40 00     mov         eax,dword ptr ds:[004065F8h]
  00401FEB: 2B 05 F0 65 40 00  sub         eax,dword ptr [_greenRect]
  00401FF1: 89 45 F0           mov         dword ptr [ebp-10h],eax
  00401FF4: 8B 0D FC 65 40 00  mov         ecx,dword ptr ds:[4065FCh]
  00401FFA: 2B 0D F4 65 40 00  sub         ecx,dword ptr ds:[4065F4h]
  00402000: 89 4D EC           mov         dword ptr [ebp-14h],ecx
  00402003: 83 3D 00 66 40 00  cmp         dword ptr [_pause],0
            00
  0040200A: 74 05              je          00402011
  0040200C: E9 A2 02 00 00     jmp         004022B3
  00402011: C7 45 FC 00 00 00  mov         dword ptr [ebp-4],0
            00
  00402018: EB 09              jmp         00402023
  0040201A: 8B 55 FC           mov         edx,dword ptr [ebp-4]
  0040201D: 83 C2 01           add         edx,1
  00402020: 89 55 FC           mov         dword ptr [ebp-4],edx
  00402023: 83 7D FC 03        cmp         dword ptr [ebp-4],3
  00402027: 0F 8D BB 00 00 00  jge         004020E8
  0040202D: 8B 45 FC           mov         eax,dword ptr [ebp-4]
  00402030: 8B 0C C5 60 65 40  mov         ecx,dword ptr _enemyPosition[eax*8]
            00
  00402037: 2B 0D 18 65 40 00  sub         ecx,dword ptr [_rectanglePosition]
  0040203D: 85 C9              test        ecx,ecx
  0040203F: 7E 15              jle         00402056
  00402041: 8B 55 FC           mov         edx,dword ptr [ebp-4]
  00402044: 8B 04 D5 60 65 40  mov         eax,dword ptr _enemyPosition[edx*8]
            00
  0040204B: 2B 05 18 65 40 00  sub         eax,dword ptr [_rectanglePosition]
  00402051: 89 45 F8           mov         dword ptr [ebp-8],eax
  00402054: EB 15              jmp         0040206B
  00402056: 8B 4D FC           mov         ecx,dword ptr [ebp-4]
  00402059: 8B 14 CD 60 65 40  mov         edx,dword ptr _enemyPosition[ecx*8]
            00
  00402060: 2B 15 18 65 40 00  sub         edx,dword ptr [_rectanglePosition]
  00402066: F7 DA              neg         edx
  00402068: 89 55 F8           mov         dword ptr [ebp-8],edx
  0040206B: A1 78 65 40 00     mov         eax,dword ptr [_enemySize]
  00402070: 03 05 24 65 40 00  add         eax,dword ptr [_rectangleSize]
  00402076: D1 E8              shr         eax,1
  00402078: 83 E8 02           sub         eax,2
  0040207B: 39 45 F8           cmp         dword ptr [ebp-8],eax
  0040207E: 73 63              jae         004020E3
  00402080: 8B 4D FC           mov         ecx,dword ptr [ebp-4]
  00402083: 8B 14 CD 64 65 40  mov         edx,dword ptr [ecx*8+406564h]
            00
  0040208A: 2B 15 1C 65 40 00  sub         edx,dword ptr ds:[40651Ch]
  00402090: 85 D2              test        edx,edx
  00402092: 7E 15              jle         004020A9
  00402094: 8B 45 FC           mov         eax,dword ptr [ebp-4]
  00402097: 8B 0C C5 64 65 40  mov         ecx,dword ptr [eax*8+406564h]
            00
  0040209E: 2B 0D 1C 65 40 00  sub         ecx,dword ptr ds:[40651Ch]
  004020A4: 89 4D F4           mov         dword ptr [ebp-0Ch],ecx
  004020A7: EB 15              jmp         004020BE
  004020A9: 8B 55 FC           mov         edx,dword ptr [ebp-4]
  004020AC: 8B 04 D5 64 65 40  mov         eax,dword ptr [edx*8+406564h]
            00
  004020B3: 2B 05 1C 65 40 00  sub         eax,dword ptr ds:[40651Ch]
  004020B9: F7 D8              neg         eax
  004020BB: 89 45 F4           mov         dword ptr [ebp-0Ch],eax
  004020BE: 8B 0D 78 65 40 00  mov         ecx,dword ptr [_enemySize]
  004020C4: 03 0D 24 65 40 00  add         ecx,dword ptr [_rectangleSize]
  004020CA: D1 E9              shr         ecx,1
  004020CC: 83 E9 02           sub         ecx,2
  004020CF: 39 4D F4           cmp         dword ptr [ebp-0Ch],ecx
  004020D2: 73 0F              jae         004020E3
  004020D4: C7 05 04 66 40 00  mov         dword ptr [_dead],1
            01 00 00 00
  004020DE: E9 D0 01 00 00     jmp         004022B3
  004020E3: E9 32 FF FF FF     jmp         0040201A
  004020E8: 83 3D 20 65 40 00  cmp         dword ptr [_wPress],0
            00
  004020EF: 74 20              je          00402111
  004020F1: 8B 15 24 65 40 00  mov         edx,dword ptr [_rectangleSize]
  004020F7: D1 EA              shr         edx,1
  004020F9: 39 15 1C 65 40 00  cmp         dword ptr ds:[40651Ch],edx
  004020FF: 76 10              jbe         00402111
  00402101: A1 1C 65 40 00     mov         eax,dword ptr ds:[0040651Ch]
  00402106: 2B 05 2C 65 40 00  sub         eax,dword ptr [_rectangleSpeed]
  0040210C: A3 1C 65 40 00     mov         dword ptr ds:[0040651Ch],eax
  00402111: 83 3D 58 65 40 00  cmp         dword ptr [_sPress],0
            00
  00402118: 74 25              je          0040213F
  0040211A: 8B 0D 24 65 40 00  mov         ecx,dword ptr [_rectangleSize]
  00402120: D1 E9              shr         ecx,1
  00402122: 8B 55 EC           mov         edx,dword ptr [ebp-14h]
  00402125: 2B D1              sub         edx,ecx
  00402127: 39 15 1C 65 40 00  cmp         dword ptr ds:[40651Ch],edx
  0040212D: 73 10              jae         0040213F
  0040212F: A1 1C 65 40 00     mov         eax,dword ptr ds:[0040651Ch]
  00402134: 03 05 2C 65 40 00  add         eax,dword ptr [_rectangleSpeed]
  0040213A: A3 1C 65 40 00     mov         dword ptr ds:[0040651Ch],eax
  0040213F: 83 3D 7C 65 40 00  cmp         dword ptr [_aPress],0
            00
  00402146: 74 22              je          0040216A
  00402148: 8B 0D 24 65 40 00  mov         ecx,dword ptr [_rectangleSize]
  0040214E: D1 E9              shr         ecx,1
  00402150: 39 0D 18 65 40 00  cmp         dword ptr [_rectanglePosition],ecx
  00402156: 76 12              jbe         0040216A
  00402158: 8B 15 18 65 40 00  mov         edx,dword ptr [_rectanglePosition]
  0040215E: 2B 15 2C 65 40 00  sub         edx,dword ptr [_rectangleSpeed]
  00402164: 89 15 18 65 40 00  mov         dword ptr [_rectanglePosition],edx
  0040216A: 83 3D 28 65 40 00  cmp         dword ptr [_dPress],0
            00
  00402171: 74 26              je          00402199
  00402173: A1 24 65 40 00     mov         eax,dword ptr [_rectangleSize]
  00402178: D1 E8              shr         eax,1
  0040217A: 8B 4D F0           mov         ecx,dword ptr [ebp-10h]
  0040217D: 2B C8              sub         ecx,eax
  0040217F: 39 0D 18 65 40 00  cmp         dword ptr [_rectanglePosition],ecx
  00402185: 73 12              jae         00402199
  00402187: 8B 15 18 65 40 00  mov         edx,dword ptr [_rectanglePosition]
  0040218D: 03 15 2C 65 40 00  add         edx,dword ptr [_rectangleSpeed]
  00402193: 89 15 18 65 40 00  mov         dword ptr [_rectanglePosition],edx
  00402199: C7 45 FC 00 00 00  mov         dword ptr [ebp-4],0
            00
  004021A0: EB 09              jmp         004021AB
  004021A2: 8B 45 FC           mov         eax,dword ptr [ebp-4]
  004021A5: 83 C0 01           add         eax,1
  004021A8: 89 45 FC           mov         dword ptr [ebp-4],eax
  004021AB: 83 7D FC 03        cmp         dword ptr [ebp-4],3
  004021AF: 0F 8D FE 00 00 00  jge         004022B3
  004021B5: 8B 4D FC           mov         ecx,dword ptr [ebp-4]
  004021B8: F3 0F 2A 04 CD 40  cvtsi2ss    xmm0,dword ptr _enemyDirection[ecx*8]
            65 40 00
  004021C1: F3 0F 59 05 14 65  mulss       xmm0,dword ptr [_enemySpeed]
            40 00
  004021C9: 8B 55 FC           mov         edx,dword ptr [ebp-4]
  004021CC: F3 0F 2A 0C D5 60  cvtsi2ss    xmm1,dword ptr _enemyPosition[edx*8]
            65 40 00
  004021D5: F3 0F 58 C8        addss       xmm1,xmm0
  004021D9: F3 0F 2C C1        cvttss2si   eax,xmm1
  004021DD: 8B 4D FC           mov         ecx,dword ptr [ebp-4]
  004021E0: 89 04 CD 60 65 40  mov         dword ptr _enemyPosition[ecx*8],eax
            00
  004021E7: 8B 15 78 65 40 00  mov         edx,dword ptr [_enemySize]
  004021ED: D1 EA              shr         edx,1
  004021EF: 8B 45 F0           mov         eax,dword ptr [ebp-10h]
  004021F2: 2B C2              sub         eax,edx
  004021F4: 8B 4D FC           mov         ecx,dword ptr [ebp-4]
  004021F7: 39 04 CD 60 65 40  cmp         dword ptr _enemyPosition[ecx*8],eax
            00
  004021FE: 72 10              jb          00402210
  00402200: 8B 55 FC           mov         edx,dword ptr [ebp-4]
  00402203: C7 04 D5 40 65 40  mov         dword ptr _enemyDirection[edx*8],0FFFFFFFFh
            00 FF FF FF FF
  0040220E: EB 21              jmp         00402231
  00402210: A1 78 65 40 00     mov         eax,dword ptr [_enemySize]
  00402215: D1 E8              shr         eax,1
  00402217: 8B 4D FC           mov         ecx,dword ptr [ebp-4]
  0040221A: 39 04 CD 60 65 40  cmp         dword ptr _enemyPosition[ecx*8],eax
            00
  00402221: 77 0E              ja          00402231
  00402223: 8B 55 FC           mov         edx,dword ptr [ebp-4]
  00402226: C7 04 D5 40 65 40  mov         dword ptr _enemyDirection[edx*8],1
            00 01 00 00 00
  00402231: 8B 45 FC           mov         eax,dword ptr [ebp-4]
  00402234: F3 0F 2A 04 C5 44  cvtsi2ss    xmm0,dword ptr [eax*8+406544h]
            65 40 00
  0040223D: F3 0F 59 05 14 65  mulss       xmm0,dword ptr [_enemySpeed]
            40 00
  00402245: 8B 4D FC           mov         ecx,dword ptr [ebp-4]
  00402248: F3 0F 2A 0C CD 64  cvtsi2ss    xmm1,dword ptr [ecx*8+406564h]
            65 40 00
  00402251: F3 0F 58 C8        addss       xmm1,xmm0
  00402255: F3 0F 2C D1        cvttss2si   edx,xmm1
  00402259: 8B 45 FC           mov         eax,dword ptr [ebp-4]
  0040225C: 89 14 C5 64 65 40  mov         dword ptr [eax*8+406564h],edx
            00
  00402263: 8B 0D 78 65 40 00  mov         ecx,dword ptr [_enemySize]
  00402269: D1 E9              shr         ecx,1
  0040226B: 8B 55 EC           mov         edx,dword ptr [ebp-14h]
  0040226E: 2B D1              sub         edx,ecx
  00402270: 8B 45 FC           mov         eax,dword ptr [ebp-4]
  00402273: 39 14 C5 64 65 40  cmp         dword ptr [eax*8+406564h],edx
            00
  0040227A: 72 10              jb          0040228C
  0040227C: 8B 4D FC           mov         ecx,dword ptr [ebp-4]
  0040227F: C7 04 CD 44 65 40  mov         dword ptr [ecx*8+406544h],0FFFFFFFFh
            00 FF FF FF FF
  0040228A: EB 22              jmp         004022AE
  0040228C: 8B 15 78 65 40 00  mov         edx,dword ptr [_enemySize]
  00402292: D1 EA              shr         edx,1
  00402294: 8B 45 FC           mov         eax,dword ptr [ebp-4]
  00402297: 39 14 C5 64 65 40  cmp         dword ptr [eax*8+406564h],edx
            00
  0040229E: 77 0E              ja          004022AE
  004022A0: 8B 4D FC           mov         ecx,dword ptr [ebp-4]
  004022A3: C7 04 CD 44 65 40  mov         dword ptr [ecx*8+406544h],1
            00 01 00 00 00
  004022AE: E9 EF FE FF FF     jmp         004021A2
  004022B3: 8B E5              mov         esp,ebp
  004022B5: 5D                 pop         ebp
  004022B6: C3                 ret
  004022B7: CC CC CC CC CC CC CC CC CC                       .........
_OnGreenKeyDown:
  004022C0: 55                 push        ebp
  004022C1: 8B EC              mov         ebp,esp
  004022C3: 51                 push        ecx
  004022C4: 8B 45 08           mov         eax,dword ptr [ebp+8]
  004022C7: 89 45 FC           mov         dword ptr [ebp-4],eax
  004022CA: 8B 4D FC           mov         ecx,dword ptr [ebp-4]
  004022CD: 83 E9 41           sub         ecx,41h
  004022D0: 89 4D FC           mov         dword ptr [ebp-4],ecx
  004022D3: 83 7D FC 16        cmp         dword ptr [ebp-4],16h
  004022D7: 77 3F              ja          00402318
  004022D9: 8B 55 FC           mov         edx,dword ptr [ebp-4]
  004022DC: 0F B6 82 30 23 40  movzx       eax,byte ptr [edx+402330h]
            00
  004022E3: FF 24 85 1C 23 40  jmp         dword ptr [eax*4+40231Ch]
            00
  004022EA: C7 05 20 65 40 00  mov         dword ptr [_wPress],1
            01 00 00 00
  004022F4: EB 22              jmp         00402318
  004022F6: C7 05 58 65 40 00  mov         dword ptr [_sPress],1
            01 00 00 00
  00402300: EB 16              jmp         00402318
  00402302: C7 05 7C 65 40 00  mov         dword ptr [_aPress],1
            01 00 00 00
  0040230C: EB 0A              jmp         00402318
  0040230E: C7 05 28 65 40 00  mov         dword ptr [_dPress],1
            01 00 00 00
  00402318: 8B E5              mov         esp,ebp
  0040231A: 5D                 pop         ebp
  0040231B: C3                 ret
  0040231C: 02 23              add         ah,byte ptr [ebx]
  0040231E: 40                 inc         eax
  0040231F: 00 0E              add         byte ptr [esi],cl
  00402321: 23 40 00           and         eax,dword ptr [eax]
  00402324: F6 22              mul         al,byte ptr [edx]
  00402326: 40                 inc         eax
  00402327: 00 EA              add         dl,ch
  00402329: 22 40 00           and         al,byte ptr [eax]
  0040232C: 18 23              sbb         byte ptr [ebx],ah
  0040232E: 40                 inc         eax
  0040232F: 00 00              add         byte ptr [eax],al
  00402331: 04 04              add         al,4
  00402333: 01 04 04           add         dword ptr [esp+eax],eax
  00402336: 04 04              add         al,4
  00402338: 04 04              add         al,4
  0040233A: 04 04              add         al,4
  0040233C: 04 04              add         al,4
  0040233E: 04 04              add         al,4
  00402340: 04 04              add         al,4
  00402342: 02 04 04           add         al,byte ptr [esp+eax]
  00402345: 04 03              add         al,3
  00402347: CC CC CC CC CC CC CC CC CC                       .........
_OnGreenKeyUp:
  00402350: 55                 push        ebp
  00402351: 8B EC              mov         ebp,esp
  00402353: 51                 push        ecx
  00402354: 8B 45 08           mov         eax,dword ptr [ebp+8]
  00402357: 89 45 FC           mov         dword ptr [ebp-4],eax
  0040235A: 8B 4D FC           mov         ecx,dword ptr [ebp-4]
  0040235D: 83 E9 41           sub         ecx,41h
  00402360: 89 4D FC           mov         dword ptr [ebp-4],ecx
  00402363: 83 7D FC 16        cmp         dword ptr [ebp-4],16h
  00402367: 77 3F              ja          004023A8
  00402369: 8B 55 FC           mov         edx,dword ptr [ebp-4]
  0040236C: 0F B6 82 C0 23 40  movzx       eax,byte ptr [edx+4023C0h]
            00
  00402373: FF 24 85 AC 23 40  jmp         dword ptr [eax*4+4023ACh]
            00
  0040237A: C7 05 20 65 40 00  mov         dword ptr [_wPress],0
            00 00 00 00
  00402384: EB 22              jmp         004023A8
  00402386: C7 05 58 65 40 00  mov         dword ptr [_sPress],0
            00 00 00 00
  00402390: EB 16              jmp         004023A8
  00402392: C7 05 7C 65 40 00  mov         dword ptr [_aPress],0
            00 00 00 00
  0040239C: EB 0A              jmp         004023A8
  0040239E: C7 05 28 65 40 00  mov         dword ptr [_dPress],0
            00 00 00 00
  004023A8: 8B E5              mov         esp,ebp
  004023AA: 5D                 pop         ebp
  004023AB: C3                 ret
  004023AC: 92                 xchg        eax,edx
  004023AD: 23 40 00           and         eax,dword ptr [eax]
  004023B0: 9E                 sahf
  004023B1: 23 40 00           and         eax,dword ptr [eax]
  004023B4: 86 23              xchg        ah,byte ptr [ebx]
  004023B6: 40                 inc         eax
  004023B7: 00 7A 23           add         byte ptr [edx+23h],bh
  004023BA: 40                 inc         eax
  004023BB: 00 A8 23 40 00 00  add         byte ptr [eax+4023h],ch
  004023C1: 04 04              add         al,4
  004023C3: 01 04 04           add         dword ptr [esp+eax],eax
  004023C6: 04 04              add         al,4
  004023C8: 04 04              add         al,4
  004023CA: 04 04              add         al,4
  004023CC: 04 04              add         al,4
  004023CE: 04 04              add         al,4
  004023D0: 04 04              add         al,4
  004023D2: 02 04 04           add         al,byte ptr [esp+eax]
  004023D5: 04 03              add         al,3
  004023D7: CC CC CC CC CC CC CC CC CC                       .........
_GreenGamePaint:
  004023E0: 55                 push        ebp
  004023E1: 8B EC              mov         ebp,esp
  004023E3: 83 EC 10           sub         esp,10h
  004023E6: 68 91 EA AB 00     push        0ABEA91h
  004023EB: FF 15 1C 50 40 00  call        dword ptr [__imp__CreateSolidBrush@4]
  004023F1: 89 45 F8           mov         dword ptr [ebp-8],eax
  004023F4: 68 22 B1 4C 00     push        4CB122h
  004023F9: FF 15 1C 50 40 00  call        dword ptr [__imp__CreateSolidBrush@4]
  004023FF: 89 45 F4           mov         dword ptr [ebp-0Ch],eax
  00402402: 6A 00              push        0
  00402404: FF 15 1C 50 40 00  call        dword ptr [__imp__CreateSolidBrush@4]
  0040240A: 89 45 F0           mov         dword ptr [ebp-10h],eax
  0040240D: 8B 45 F8           mov         eax,dword ptr [ebp-8]
  00402410: 50                 push        eax
  00402411: 8B 0D 94 65 40 00  mov         ecx,dword ptr [_hdcMem]
  00402417: 51                 push        ecx
  00402418: FF 15 08 50 40 00  call        dword ptr [__imp__SelectObject@8]
  0040241E: 8B 15 FC 65 40 00  mov         edx,dword ptr ds:[4065FCh]
  00402424: 52                 push        edx
  00402425: A1 F8 65 40 00     mov         eax,dword ptr ds:[004065F8h]
  0040242A: 50                 push        eax
  0040242B: 8B 0D F4 65 40 00  mov         ecx,dword ptr ds:[4065F4h]
  00402431: 51                 push        ecx
  00402432: 8B 15 F0 65 40 00  mov         edx,dword ptr [_greenRect]
  00402438: 52                 push        edx
  00402439: A1 94 65 40 00     mov         eax,dword ptr [_hdcMem]
  0040243E: 50                 push        eax
  0040243F: FF 15 14 50 40 00  call        dword ptr [__imp__Rectangle@20]
  00402445: 8B 4D F0           mov         ecx,dword ptr [ebp-10h]
  00402448: 51                 push        ecx
  00402449: 8B 15 94 65 40 00  mov         edx,dword ptr [_hdcMem]
  0040244F: 52                 push        edx
  00402450: FF 15 08 50 40 00  call        dword ptr [__imp__SelectObject@8]
  00402456: C7 45 FC 00 00 00  mov         dword ptr [ebp-4],0
            00
  0040245D: EB 09              jmp         00402468
  0040245F: 8B 45 FC           mov         eax,dword ptr [ebp-4]
  00402462: 83 C0 01           add         eax,1
  00402465: 89 45 FC           mov         dword ptr [ebp-4],eax
  00402468: 83 7D FC 03        cmp         dword ptr [ebp-4],3
  0040246C: 7D 7A              jge         004024E8
  0040246E: 8B 4D FC           mov         ecx,dword ptr [ebp-4]
  00402471: 8B 15 F4 65 40 00  mov         edx,dword ptr ds:[4065F4h]
  00402477: 03 14 CD 64 65 40  add         edx,dword ptr [ecx*8+406564h]
            00
  0040247E: A1 78 65 40 00     mov         eax,dword ptr [_enemySize]
  00402483: D1 E8              shr         eax,1
  00402485: 03 D0              add         edx,eax
  00402487: 52                 push        edx
  00402488: 8B 4D FC           mov         ecx,dword ptr [ebp-4]
  0040248B: 8B 15 F0 65 40 00  mov         edx,dword ptr [_greenRect]
  00402491: 03 14 CD 60 65 40  add         edx,dword ptr _enemyPosition[ecx*8]
            00
  00402498: A1 78 65 40 00     mov         eax,dword ptr [_enemySize]
  0040249D: D1 E8              shr         eax,1
  0040249F: 03 D0              add         edx,eax
  004024A1: 52                 push        edx
  004024A2: 8B 4D FC           mov         ecx,dword ptr [ebp-4]
  004024A5: 8B 15 F4 65 40 00  mov         edx,dword ptr ds:[4065F4h]
  004024AB: 03 14 CD 64 65 40  add         edx,dword ptr [ecx*8+406564h]
            00
  004024B2: A1 78 65 40 00     mov         eax,dword ptr [_enemySize]
  004024B7: D1 E8              shr         eax,1
  004024B9: 2B D0              sub         edx,eax
  004024BB: 52                 push        edx
  004024BC: 8B 4D FC           mov         ecx,dword ptr [ebp-4]
  004024BF: 8B 15 F0 65 40 00  mov         edx,dword ptr [_greenRect]
  004024C5: 03 14 CD 60 65 40  add         edx,dword ptr _enemyPosition[ecx*8]
            00
  004024CC: A1 78 65 40 00     mov         eax,dword ptr [_enemySize]
  004024D1: D1 E8              shr         eax,1
  004024D3: 2B D0              sub         edx,eax
  004024D5: 52                 push        edx
  004024D6: 8B 0D 94 65 40 00  mov         ecx,dword ptr [_hdcMem]
  004024DC: 51                 push        ecx
  004024DD: FF 15 14 50 40 00  call        dword ptr [__imp__Rectangle@20]
  004024E3: E9 77 FF FF FF     jmp         0040245F
  004024E8: 8B 55 F4           mov         edx,dword ptr [ebp-0Ch]
  004024EB: 52                 push        edx
  004024EC: A1 94 65 40 00     mov         eax,dword ptr [_hdcMem]
  004024F1: 50                 push        eax
  004024F2: FF 15 08 50 40 00  call        dword ptr [__imp__SelectObject@8]
  004024F8: 8B 0D F4 65 40 00  mov         ecx,dword ptr ds:[4065F4h]
  004024FE: 03 0D 1C 65 40 00  add         ecx,dword ptr ds:[40651Ch]
  00402504: 8B 15 24 65 40 00  mov         edx,dword ptr [_rectangleSize]
  0040250A: D1 EA              shr         edx,1
  0040250C: 03 CA              add         ecx,edx
  0040250E: 51                 push        ecx
  0040250F: A1 F0 65 40 00     mov         eax,dword ptr [_greenRect]
  00402514: 03 05 18 65 40 00  add         eax,dword ptr [_rectanglePosition]
  0040251A: 8B 0D 24 65 40 00  mov         ecx,dword ptr [_rectangleSize]
  00402520: D1 E9              shr         ecx,1
  00402522: 03 C1              add         eax,ecx
  00402524: 50                 push        eax
  00402525: 8B 15 F4 65 40 00  mov         edx,dword ptr ds:[4065F4h]
  0040252B: 03 15 1C 65 40 00  add         edx,dword ptr ds:[40651Ch]
  00402531: A1 24 65 40 00     mov         eax,dword ptr [_rectangleSize]
  00402536: D1 E8              shr         eax,1
  00402538: 2B D0              sub         edx,eax
  0040253A: 52                 push        edx
  0040253B: 8B 0D F0 65 40 00  mov         ecx,dword ptr [_greenRect]
  00402541: 03 0D 18 65 40 00  add         ecx,dword ptr [_rectanglePosition]
  00402547: 8B 15 24 65 40 00  mov         edx,dword ptr [_rectangleSize]
  0040254D: D1 EA              shr         edx,1
  0040254F: 2B CA              sub         ecx,edx
  00402551: 51                 push        ecx
  00402552: A1 94 65 40 00     mov         eax,dword ptr [_hdcMem]
  00402557: 50                 push        eax
  00402558: FF 15 14 50 40 00  call        dword ptr [__imp__Rectangle@20]
  0040255E: 8B 4D F8           mov         ecx,dword ptr [ebp-8]
  00402561: 51                 push        ecx
  00402562: FF 15 18 50 40 00  call        dword ptr [__imp__DeleteObject@4]
  00402568: 8B 55 F4           mov         edx,dword ptr [ebp-0Ch]
  0040256B: 52                 push        edx
  0040256C: FF 15 18 50 40 00  call        dword ptr [__imp__DeleteObject@4]
  00402572: 8B 45 F0           mov         eax,dword ptr [ebp-10h]
  00402575: 50                 push        eax
  00402576: FF 15 18 50 40 00  call        dword ptr [__imp__DeleteObject@4]
  0040257C: 8B E5              mov         esp,ebp
  0040257E: 5D                 pop         ebp
  0040257F: C3                 ret
_MainWndProc@16:
  00402580: 55                 push        ebp
  00402581: 8B EC              mov         ebp,esp
  00402583: 51                 push        ecx
  00402584: 8B 45 0C           mov         eax,dword ptr [ebp+0Ch]
  00402587: 89 45 FC           mov         dword ptr [ebp-4],eax
  0040258A: 81 7D FC 00 01 00  cmp         dword ptr [ebp-4],100h
            00
  00402591: 77 1D              ja          004025B0
  00402593: 81 7D FC 00 01 00  cmp         dword ptr [ebp-4],100h
            00
  0040259A: 74 46              je          004025E2
  0040259C: 83 7D FC 01        cmp         dword ptr [ebp-4],1
  004025A0: 74 22              je          004025C4
  004025A2: 83 7D FC 02        cmp         dword ptr [ebp-4],2
  004025A6: 74 5D              je          00402605
  004025A8: 83 7D FC 0F        cmp         dword ptr [ebp-4],0Fh
  004025AC: 74 50              je          004025FE
  004025AE: EB 5D              jmp         0040260D
  004025B0: 81 7D FC 01 01 00  cmp         dword ptr [ebp-4],101h
            00
  004025B7: 74 37              je          004025F0
  004025B9: 81 7D FC 13 01 00  cmp         dword ptr [ebp-4],113h
            00
  004025C0: 74 12              je          004025D4
  004025C2: EB 49              jmp         0040260D
  004025C4: 8B 4D 08           mov         ecx,dword ptr [ebp+8]
  004025C7: 89 0D C8 65 40 00  mov         dword ptr [_hwnd],ecx
  004025CD: E8 8E F0 FF FF     call        _CreateGame
  004025D2: EB 39              jmp         0040260D
  004025D4: 8B 55 10           mov         edx,dword ptr [ebp+10h]
  004025D7: 52                 push        edx
  004025D8: E8 03 F1 FF FF     call        _OnTimer
  004025DD: 83 C4 04           add         esp,4
  004025E0: EB 2B              jmp         0040260D
  004025E2: 8B 45 10           mov         eax,dword ptr [ebp+10h]
  004025E5: 50                 push        eax
  004025E6: E8 15 F2 FF FF     call        _OnKeyDown
  004025EB: 83 C4 04           add         esp,4
  004025EE: EB 1D              jmp         0040260D
  004025F0: 8B 4D 10           mov         ecx,dword ptr [ebp+10h]
  004025F3: 51                 push        ecx
  004025F4: E8 E7 F2 FF FF     call        _OnKeyUp
  004025F9: 83 C4 04           add         esp,4
  004025FC: EB 0F              jmp         0040260D
  004025FE: E8 8D F3 FF FF     call        _GamePaint
  00402603: EB 08              jmp         0040260D
  00402605: 6A 00              push        0
  00402607: FF 15 64 50 40 00  call        dword ptr [__imp__ExitProcess@4]
  0040260D: 8B 55 14           mov         edx,dword ptr [ebp+14h]
  00402610: 52                 push        edx
  00402611: 8B 45 10           mov         eax,dword ptr [ebp+10h]
  00402614: 50                 push        eax
  00402615: 8B 4D 0C           mov         ecx,dword ptr [ebp+0Ch]
  00402618: 51                 push        ecx
  00402619: 8B 55 08           mov         edx,dword ptr [ebp+8]
  0040261C: 52                 push        edx
  0040261D: FF 15 9C 50 40 00  call        dword ptr [__imp__DefWindowProcA@16]
  00402623: 8B E5              mov         esp,ebp
  00402625: 5D                 pop         ebp
  00402626: C2 10 00           ret         10h
  00402629: CC CC CC CC CC CC CC                             .......
_WinMain@16:
  00402630: 55                 push        ebp
  00402631: 8B EC              mov         ebp,esp
  00402633: 83 EC 4C           sub         esp,4Ch
  00402636: A1 04 60 40 00     mov         eax,dword ptr [___security_cookie]
  0040263B: 33 C5              xor         eax,ebp
  0040263D: 89 45 FC           mov         dword ptr [ebp-4],eax
  00402640: C7 45 B8 03 00 00  mov         dword ptr [ebp-48h],3
            00
  00402647: C7 45 BC 80 25 40  mov         dword ptr [ebp-44h],offset _MainWndProc@16
            00
  0040264E: C7 45 C0 00 00 00  mov         dword ptr [ebp-40h],0
            00
  00402655: C7 45 C4 00 00 00  mov         dword ptr [ebp-3Ch],0
            00
  0040265C: 8B 45 08           mov         eax,dword ptr [ebp+8]
  0040265F: 89 45 C8           mov         dword ptr [ebp-38h],eax
  00402662: 68 00 7F 00 00     push        7F00h
  00402667: 6A 00              push        0
  00402669: FF 15 A4 50 40 00  call        dword ptr [__imp__LoadIconA@8]
  0040266F: 89 45 CC           mov         dword ptr [ebp-34h],eax
  00402672: 68 03 7F 00 00     push        7F03h
  00402677: 6A 00              push        0
  00402679: FF 15 74 50 40 00  call        dword ptr [__imp__LoadCursorA@8]
  0040267F: 89 45 D0           mov         dword ptr [ebp-30h],eax
  00402682: 6A 00              push        0
  00402684: FF 15 00 50 40 00  call        dword ptr [__imp__GetStockObject@4]
  0040268A: 89 45 D4           mov         dword ptr [ebp-2Ch],eax
  0040268D: C7 45 D8 F4 60 40  mov         dword ptr [ebp-28h],4060F4h
            00
  00402694: C7 45 DC E8 60 40  mov         dword ptr [ebp-24h],4060E8h
            00
  0040269B: 8D 4D B8           lea         ecx,[ebp-48h]
  0040269E: 51                 push        ecx
  0040269F: FF 15 98 50 40 00  call        dword ptr [__imp__RegisterClassA@4]
  004026A5: 6A 00              push        0
  004026A7: 8B 55 08           mov         edx,dword ptr [ebp+8]
  004026AA: 52                 push        edx
  004026AB: 6A 00              push        0
  004026AD: 6A 00              push        0
  004026AF: 68 00 00 00 80     push        80000000h
  004026B4: 68 00 00 00 80     push        80000000h
  004026B9: 68 00 00 00 80     push        80000000h
  004026BE: 68 00 00 00 80     push        80000000h
  004026C3: 68 00 00 CF 00     push        0CF0000h
  004026C8: 68 D4 60 40 00     push        4060D4h
  004026CD: 68 C8 60 40 00     push        4060C8h
  004026D2: 6A 00              push        0
  004026D4: FF 15 7C 50 40 00  call        dword ptr [__imp__CreateWindowExA@48]
  004026DA: A3 C8 65 40 00     mov         dword ptr [_hwnd],eax
  004026DF: 8B 45 14           mov         eax,dword ptr [ebp+14h]
  004026E2: 50                 push        eax
  004026E3: 8B 0D C8 65 40 00  mov         ecx,dword ptr [_hwnd]
  004026E9: 51                 push        ecx
  004026EA: FF 15 94 50 40 00  call        dword ptr [__imp__ShowWindow@8]
  004026F0: 8B 15 C8 65 40 00  mov         edx,dword ptr [_hwnd]
  004026F6: 52                 push        edx
  004026F7: FF 15 A0 50 40 00  call        dword ptr [__imp__UpdateWindow@4]
  004026FD: 6A 00              push        0
  004026FF: 6A 00              push        0
  00402701: 6A 00              push        0
  00402703: 8D 45 E0           lea         eax,[ebp-20h]
  00402706: 50                 push        eax
  00402707: FF 15 78 50 40 00  call        dword ptr [__imp__GetMessageA@16]
  0040270D: 89 45 B4           mov         dword ptr [ebp-4Ch],eax
  00402710: 83 7D B4 00        cmp         dword ptr [ebp-4Ch],0
  00402714: 74 1C              je          00402732
  00402716: 83 7D B4 FF        cmp         dword ptr [ebp-4Ch],0FFFFFFFFh
  0040271A: 74 16              je          00402732
  0040271C: 8D 4D E0           lea         ecx,[ebp-20h]
  0040271F: 51                 push        ecx
  00402720: FF 15 A8 50 40 00  call        dword ptr [__imp__TranslateMessage@4]
  00402726: 8D 55 E0           lea         edx,[ebp-20h]
  00402729: 52                 push        edx
  0040272A: FF 15 70 50 40 00  call        dword ptr [__imp__DispatchMessageA@4]
  00402730: EB CB              jmp         004026FD
  00402732: 8B 45 E8           mov         eax,dword ptr [ebp-18h]
  00402735: 8B 4D FC           mov         ecx,dword ptr [ebp-4]
  00402738: 33 CD              xor         ecx,ebp
  0040273A: E8 A5 0D 00 00     call        @__security_check_cookie@4
  0040273F: 8B E5              mov         esp,ebp
  00402741: 5D                 pop         ebp
  00402742: C2 10 00           ret         10h
  00402745: CC CC CC CC CC CC CC CC CC CC CC                 ...........
_CreateRedGame:
  00402750: 55                 push        ebp
  00402751: 8B EC              mov         ebp,esp
  00402753: A1 30 66 40 00     mov         eax,dword ptr [_redRect]
  00402758: 03 05 38 66 40 00  add         eax,dword ptr ds:[406638h]
  0040275E: 99                 cdq
  0040275F: 2B C2              sub         eax,edx
  00402761: D1 F8              sar         eax,1
  00402763: A3 F8 64 40 00     mov         dword ptr [_center],eax
  00402768: A1 34 66 40 00     mov         eax,dword ptr ds:[00406634h]
  0040276D: 03 05 3C 66 40 00  add         eax,dword ptr ds:[40663Ch]
  00402773: 99                 cdq
  00402774: 2B C2              sub         eax,edx
  00402776: D1 F8              sar         eax,1
  00402778: A3 FC 64 40 00     mov         dword ptr ds:[004064FCh],eax
  0040277D: F3 0F 10 05 94 51  movss       xmm0,dword ptr [__real@3f800000]
            40 00
  00402785: F3 0F 11 05 04 65  movss       dword ptr [_ballOffSet],xmm0
            40 00
  0040278D: A1 38 66 40 00     mov         eax,dword ptr ds:[00406638h]
  00402792: 2B 05 30 66 40 00  sub         eax,dword ptr [_redRect]
  00402798: 99                 cdq
  00402799: 2B C2              sub         eax,edx
  0040279B: D1 F8              sar         eax,1
  0040279D: A3 F0 64 40 00     mov         dword ptr [_platformLength],eax
  004027A2: A1 F0 64 40 00     mov         eax,dword ptr [_platformLength]
  004027A7: 33 D2              xor         edx,edx
  004027A9: B9 14 00 00 00     mov         ecx,14h
  004027AE: F7 F1              div         eax,ecx
  004027B0: A3 EC 64 40 00     mov         dword ptr [_ballRadius],eax
  004027B5: 0F 57 C0           xorps       xmm0,xmm0
  004027B8: F3 0F 11 05 10 65  movss       dword ptr [_theta],xmm0
            40 00
  004027C0: 0F 57 C0           xorps       xmm0,xmm0
  004027C3: F3 0F 11 05 F4 64  movss       dword ptr [_thetaV],xmm0
            40 00
  004027CB: F3 0F 10 05 8C 51  movss       xmm0,dword ptr [__real@3ac49ba6]
            40 00
  004027D3: F3 0F 11 05 E8 64  movss       dword ptr [_deltaV],xmm0
            40 00
  004027DB: F3 0F 10 05 A8 51  movss       xmm0,dword ptr [__real@b6a7c5ac]
            40 00
  004027E3: F3 0F 11 05 0C 65  movss       dword ptr [_influenceFromBallToV],xmm0
            40 00
  004027EB: F3 0F 10 05 AC 51  movss       xmm0,dword ptr [__real@c0000000]
            40 00
  004027F3: F3 0F 11 05 08 65  movss       dword ptr [_influenceFromThetaToBall],xmm0
            40 00
  004027FB: 6A 00              push        0
  004027FD: 6A 14              push        14h
  004027FF: 68 F5 37 01 00     push        137F5h
  00402804: 8B 15 C8 65 40 00  mov         edx,dword ptr [_hwnd]
  0040280A: 52                 push        edx
  0040280B: FF 15 80 50 40 00  call        dword ptr [__imp__SetTimer@16]
  00402811: 5D                 pop         ebp
  00402812: C3                 ret
  00402813: CC CC CC CC CC CC CC CC CC CC CC CC CC           .............
_OnRedTimer:
  00402820: 55                 push        ebp
  00402821: 8B EC              mov         ebp,esp
  00402823: 83 EC 24           sub         esp,24h
  00402826: 83 3D 00 66 40 00  cmp         dword ptr [_pause],0
            00
  0040282D: 74 05              je          00402834
  0040282F: E9 87 01 00 00     jmp         004029BB
  00402834: F3 0F 5A 05 08 65  cvtss2sd    xmm0,dword ptr [_influenceFromThetaToBall]
            40 00
  0040283C: F3 0F 5A 0D 10 65  cvtss2sd    xmm1,dword ptr [_theta]
            40 00
  00402844: 83 EC 08           sub         esp,8
  00402847: F2 0F 11 0C 24     movsd       mmword ptr [esp],xmm1
  0040284C: F2 0F 11 45 EC     movsd       mmword ptr [ebp-14h],xmm0
  00402851: FF 15 DC 50 40 00  call        dword ptr [__imp__sin]
  00402857: 83 C4 08           add         esp,8
  0040285A: DD 5D E4           fstp        qword ptr [ebp-1Ch]
  0040285D: F2 0F 10 45 EC     movsd       xmm0,mmword ptr [ebp-14h]
  00402862: F2 0F 59 45 E4     mulsd       xmm0,mmword ptr [ebp-1Ch]
  00402867: F3 0F 5A 0D 04 65  cvtss2sd    xmm1,dword ptr [_ballOffSet]
            40 00
  0040286F: F2 0F 58 C8        addsd       xmm1,xmm0
  00402873: F2 0F 5A C1        cvtsd2ss    xmm0,xmm1
  00402877: F3 0F 11 05 04 65  movss       dword ptr [_ballOffSet],xmm0
            40 00
  0040287F: F3 0F 10 05 04 65  movss       xmm0,dword ptr [_ballOffSet]
            40 00
  00402887: 0F 2F 05 88 51 40  comiss      xmm0,dword ptr [__real@00000000]
            00
  0040288E: 76 0F              jbe         0040289F
  00402890: F3 0F 10 05 04 65  movss       xmm0,dword ptr [_ballOffSet]
            40 00
  00402898: F3 0F 11 45 F8     movss       dword ptr [ebp-8],xmm0
  0040289D: EB 14              jmp         004028B3
  0040289F: F3 0F 10 05 04 65  movss       xmm0,dword ptr [_ballOffSet]
            40 00
  004028A7: 0F 57 05 C0 51 40  xorps       xmm0,xmmword ptr [__xmm@80000000800000008000000080000000]
            00
  004028AE: F3 0F 11 45 F8     movss       dword ptr [ebp-8],xmm0
  004028B3: A1 F0 64 40 00     mov         eax,dword ptr [_platformLength]
  004028B8: D1 E8              shr         eax,1
  004028BA: 89 45 FC           mov         dword ptr [ebp-4],eax
  004028BD: F2 0F 2A 45 FC     cvtsi2sd    xmm0,dword ptr [ebp-4]
  004028C2: 8B 4D FC           mov         ecx,dword ptr [ebp-4]
  004028C5: C1 E9 1F           shr         ecx,1Fh
  004028C8: F2 0F 58 04 CD B0  addsd       xmm0,mmword ptr __xmm@41f00000000000000000000000000000[ecx*8]
            51 40 00
  004028D1: F2 0F 11 45 DC     movsd       mmword ptr [ebp-24h],xmm0
  004028D6: F2 0F 5A 45 DC     cvtsd2ss    xmm0,mmword ptr [ebp-24h]
  004028DB: F3 0F 10 4D F8     movss       xmm1,dword ptr [ebp-8]
  004028E0: 0F 2F C8           comiss      xmm1,xmm0
  004028E3: 76 0F              jbe         004028F4
  004028E5: C7 05 04 66 40 00  mov         dword ptr [_dead],1
            01 00 00 00
  004028EF: E9 C7 00 00 00     jmp         004029BB
  004028F4: F3 0F 10 05 04 65  movss       xmm0,dword ptr [_ballOffSet]
            40 00
  004028FC: F3 0F 59 05 0C 65  mulss       xmm0,dword ptr [_influenceFromBallToV]
            40 00
  00402904: F3 0F 58 05 F4 64  addss       xmm0,dword ptr [_thetaV]
            40 00
  0040290C: F3 0F 11 05 F4 64  movss       dword ptr [_thetaV],xmm0
            40 00
  00402914: 83 3D 00 65 40 00  cmp         dword ptr [_leftPress],0
            00
  0040291B: 74 18              je          00402935
  0040291D: F3 0F 10 05 F4 64  movss       xmm0,dword ptr [_thetaV]
            40 00
  00402925: F3 0F 58 05 E8 64  addss       xmm0,dword ptr [_deltaV]
            40 00
  0040292D: F3 0F 11 05 F4 64  movss       dword ptr [_thetaV],xmm0
            40 00
  00402935: 83 3D E4 64 40 00  cmp         dword ptr [_rightPress],0
            00
  0040293C: 74 18              je          00402956
  0040293E: F3 0F 10 05 F4 64  movss       xmm0,dword ptr [_thetaV]
            40 00
  00402946: F3 0F 5C 05 E8 64  subss       xmm0,dword ptr [_deltaV]
            40 00
  0040294E: F3 0F 11 05 F4 64  movss       dword ptr [_thetaV],xmm0
            40 00
  00402956: F3 0F 10 05 10 65  movss       xmm0,dword ptr [_theta]
            40 00
  0040295E: F3 0F 58 05 F4 64  addss       xmm0,dword ptr [_thetaV]
            40 00
  00402966: F3 0F 11 05 10 65  movss       dword ptr [_theta],xmm0
            40 00
  0040296E: F3 0F 10 05 10 65  movss       xmm0,dword ptr [_theta]
            40 00
  00402976: 0F 2F 05 88 51 40  comiss      xmm0,dword ptr [__real@00000000]
            00
  0040297D: 76 0F              jbe         0040298E
  0040297F: F3 0F 10 05 10 65  movss       xmm0,dword ptr [_theta]
            40 00
  00402987: F3 0F 11 45 F4     movss       dword ptr [ebp-0Ch],xmm0
  0040298C: EB 14              jmp         004029A2
  0040298E: F3 0F 10 05 10 65  movss       xmm0,dword ptr [_theta]
            40 00
  00402996: 0F 57 05 C0 51 40  xorps       xmm0,xmmword ptr [__xmm@80000000800000008000000080000000]
            00
  0040299D: F3 0F 11 45 F4     movss       dword ptr [ebp-0Ch],xmm0
  004029A2: F3 0F 5A 45 F4     cvtss2sd    xmm0,dword ptr [ebp-0Ch]
  004029A7: 66 0F 2F 05 A0 51  comisd      xmm0,mmword ptr [__real@3ff921fb54411744]
            40 00
  004029AF: 72 0A              jb          004029BB
  004029B1: C7 05 04 66 40 00  mov         dword ptr [_dead],1
            01 00 00 00
  004029BB: 8B E5              mov         esp,ebp
  004029BD: 5D                 pop         ebp
  004029BE: C3                 ret
  004029BF: CC                                               .
_OnRedKeyDown:
  004029C0: 55                 push        ebp
  004029C1: 8B EC              mov         ebp,esp
  004029C3: 51                 push        ecx
  004029C4: 8B 45 08           mov         eax,dword ptr [ebp+8]
  004029C7: 89 45 FC           mov         dword ptr [ebp-4],eax
  004029CA: 83 7D FC 25        cmp         dword ptr [ebp-4],25h
  004029CE: 74 08              je          004029D8
  004029D0: 83 7D FC 27        cmp         dword ptr [ebp-4],27h
  004029D4: 74 0E              je          004029E4
  004029D6: EB 16              jmp         004029EE
  004029D8: C7 05 00 65 40 00  mov         dword ptr [_leftPress],1
            01 00 00 00
  004029E2: EB 0A              jmp         004029EE
  004029E4: C7 05 E4 64 40 00  mov         dword ptr [_rightPress],1
            01 00 00 00
  004029EE: 8B E5              mov         esp,ebp
  004029F0: 5D                 pop         ebp
  004029F1: C3                 ret
  004029F2: CC CC CC CC CC CC CC CC CC CC CC CC CC CC        ..............
_OnRedKeyUp:
  00402A00: 55                 push        ebp
  00402A01: 8B EC              mov         ebp,esp
  00402A03: 51                 push        ecx
  00402A04: 8B 45 08           mov         eax,dword ptr [ebp+8]
  00402A07: 89 45 FC           mov         dword ptr [ebp-4],eax
  00402A0A: 83 7D FC 25        cmp         dword ptr [ebp-4],25h
  00402A0E: 74 08              je          00402A18
  00402A10: 83 7D FC 27        cmp         dword ptr [ebp-4],27h
  00402A14: 74 0E              je          00402A24
  00402A16: EB 16              jmp         00402A2E
  00402A18: C7 05 00 65 40 00  mov         dword ptr [_leftPress],0
            00 00 00 00
  00402A22: EB 0A              jmp         00402A2E
  00402A24: C7 05 E4 64 40 00  mov         dword ptr [_rightPress],0
            00 00 00 00
  00402A2E: 8B E5              mov         esp,ebp
  00402A30: 5D                 pop         ebp
  00402A31: C3                 ret
  00402A32: CC CC CC CC CC CC CC CC CC CC CC CC CC CC        ..............
_RedGamePaint:
  00402A40: 55                 push        ebp
  00402A41: 8B EC              mov         ebp,esp
  00402A43: 83 EC 7C           sub         esp,7Ch
  00402A46: A1 04 60 40 00     mov         eax,dword ptr [___security_cookie]
  00402A4B: 33 C5              xor         eax,ebp
  00402A4D: 89 45 FC           mov         dword ptr [ebp-4],eax
  00402A50: F3 0F 5A 05 10 65  cvtss2sd    xmm0,dword ptr [_theta]
            40 00
  00402A58: 83 EC 08           sub         esp,8
  00402A5B: F2 0F 11 04 24     movsd       mmword ptr [esp],xmm0
  00402A60: FF 15 D4 50 40 00  call        dword ptr [__imp__cos]
  00402A66: 83 C4 08           add         esp,8
  00402A69: D9 5D E8           fstp        dword ptr [ebp-18h]
  00402A6C: F3 0F 5A 05 10 65  cvtss2sd    xmm0,dword ptr [_theta]
            40 00
  00402A74: 83 EC 08           sub         esp,8
  00402A77: F2 0F 11 04 24     movsd       mmword ptr [esp],xmm0
  00402A7C: FF 15 DC 50 40 00  call        dword ptr [__imp__sin]
  00402A82: 83 C4 08           add         esp,8
  00402A85: D9 5D E4           fstp        dword ptr [ebp-1Ch]
  00402A88: F3 0F 10 05 04 65  movss       xmm0,dword ptr [_ballOffSet]
            40 00
  00402A90: F3 0F 59 45 E8     mulss       xmm0,dword ptr [ebp-18h]
  00402A95: F3 0F 2A 0D F8 64  cvtsi2ss    xmm1,dword ptr [_center]
            40 00
  00402A9D: F3 0F 58 C1        addss       xmm0,xmm1
  00402AA1: A1 EC 64 40 00     mov         eax,dword ptr [_ballRadius]
  00402AA6: 89 45 E0           mov         dword ptr [ebp-20h],eax
  00402AA9: F2 0F 2A 4D E0     cvtsi2sd    xmm1,dword ptr [ebp-20h]
  00402AAE: 8B 4D E0           mov         ecx,dword ptr [ebp-20h]
  00402AB1: C1 E9 1F           shr         ecx,1Fh
  00402AB4: F2 0F 58 0C CD B0  addsd       xmm1,mmword ptr __xmm@41f00000000000000000000000000000[ecx*8]
            51 40 00
  00402ABD: F2 0F 11 4D AC     movsd       mmword ptr [ebp-54h],xmm1
  00402AC2: F2 0F 5A 4D AC     cvtsd2ss    xmm1,mmword ptr [ebp-54h]
  00402AC7: F3 0F 59 4D E4     mulss       xmm1,dword ptr [ebp-1Ch]
  00402ACC: F3 0F 5C C1        subss       xmm0,xmm1
  00402AD0: E8 4B 16 00 00     call        __ftoui3
  00402AD5: 89 45 C4           mov         dword ptr [ebp-3Ch],eax
  00402AD8: F3 0F 10 05 04 65  movss       xmm0,dword ptr [_ballOffSet]
            40 00
  00402AE0: 0F 57 05 C0 51 40  xorps       xmm0,xmmword ptr [__xmm@80000000800000008000000080000000]
            00
  00402AE7: F3 0F 59 45 E4     mulss       xmm0,dword ptr [ebp-1Ch]
  00402AEC: F3 0F 2A 0D FC 64  cvtsi2ss    xmm1,dword ptr ds:[4064FCh]
            40 00
  00402AF4: F3 0F 58 C1        addss       xmm0,xmm1
  00402AF8: 8B 15 EC 64 40 00  mov         edx,dword ptr [_ballRadius]
  00402AFE: 89 55 DC           mov         dword ptr [ebp-24h],edx
  00402B01: F2 0F 2A 4D DC     cvtsi2sd    xmm1,dword ptr [ebp-24h]
  00402B06: 8B 45 DC           mov         eax,dword ptr [ebp-24h]
  00402B09: C1 E8 1F           shr         eax,1Fh
  00402B0C: F2 0F 58 0C C5 B0  addsd       xmm1,mmword ptr __xmm@41f00000000000000000000000000000[eax*8]
            51 40 00
  00402B15: F2 0F 11 4D A4     movsd       mmword ptr [ebp-5Ch],xmm1
  00402B1A: F2 0F 5A 4D A4     cvtsd2ss    xmm1,mmword ptr [ebp-5Ch]
  00402B1F: F3 0F 59 4D E8     mulss       xmm1,dword ptr [ebp-18h]
  00402B24: F3 0F 5C C1        subss       xmm0,xmm1
  00402B28: E8 F3 15 00 00     call        __ftoui3
  00402B2D: 89 45 C8           mov         dword ptr [ebp-38h],eax
  00402B30: 68 FF AE C9 00     push        0C9AEFFh
  00402B35: FF 15 1C 50 40 00  call        dword ptr [__imp__CreateSolidBrush@4]
  00402B3B: 89 45 C0           mov         dword ptr [ebp-40h],eax
  00402B3E: 8B 0D EC 64 40 00  mov         ecx,dword ptr [_ballRadius]
  00402B44: D1 E9              shr         ecx,1
  00402B46: 51                 push        ecx
  00402B47: E8 64 F2 FF FF     call        _blackPen
  00402B4C: 83 C4 04           add         esp,4
  00402B4F: 89 45 BC           mov         dword ptr [ebp-44h],eax
  00402B52: E8 79 F2 FF FF     call        _transparentPen
  00402B57: 89 45 B8           mov         dword ptr [ebp-48h],eax
  00402B5A: 68 FF 00 00 00     push        0FFh
  00402B5F: FF 15 1C 50 40 00  call        dword ptr [__imp__CreateSolidBrush@4]
  00402B65: 89 45 B4           mov         dword ptr [ebp-4Ch],eax
  00402B68: 8B 55 C0           mov         edx,dword ptr [ebp-40h]
  00402B6B: 52                 push        edx
  00402B6C: A1 94 65 40 00     mov         eax,dword ptr [_hdcMem]
  00402B71: 50                 push        eax
  00402B72: FF 15 08 50 40 00  call        dword ptr [__imp__SelectObject@8]
  00402B78: 8B 0D 3C 66 40 00  mov         ecx,dword ptr ds:[40663Ch]
  00402B7E: 51                 push        ecx
  00402B7F: 8B 15 38 66 40 00  mov         edx,dword ptr ds:[406638h]
  00402B85: 52                 push        edx
  00402B86: A1 34 66 40 00     mov         eax,dword ptr ds:[00406634h]
  00402B8B: 50                 push        eax
  00402B8C: 8B 0D 30 66 40 00  mov         ecx,dword ptr [_redRect]
  00402B92: 51                 push        ecx
  00402B93: 8B 15 94 65 40 00  mov         edx,dword ptr [_hdcMem]
  00402B99: 52                 push        edx
  00402B9A: FF 15 14 50 40 00  call        dword ptr [__imp__Rectangle@20]
  00402BA0: 8B 45 BC           mov         eax,dword ptr [ebp-44h]
  00402BA3: 50                 push        eax
  00402BA4: 8B 0D 94 65 40 00  mov         ecx,dword ptr [_hdcMem]
  00402BAA: 51                 push        ecx
  00402BAB: FF 15 08 50 40 00  call        dword ptr [__imp__SelectObject@8]
  00402BB1: 8B 15 30 66 40 00  mov         edx,dword ptr [_redRect]
  00402BB7: 03 15 F8 64 40 00  add         edx,dword ptr [_center]
  00402BBD: F3 0F 2A C2        cvtsi2ss    xmm0,edx
  00402BC1: A1 F0 64 40 00     mov         eax,dword ptr [_platformLength]
  00402BC6: D1 E8              shr         eax,1
  00402BC8: 89 45 D8           mov         dword ptr [ebp-28h],eax
  00402BCB: F2 0F 2A 4D D8     cvtsi2sd    xmm1,dword ptr [ebp-28h]
  00402BD0: 8B 4D D8           mov         ecx,dword ptr [ebp-28h]
  00402BD3: C1 E9 1F           shr         ecx,1Fh
  00402BD6: F2 0F 58 0C CD B0  addsd       xmm1,mmword ptr __xmm@41f00000000000000000000000000000[ecx*8]
            51 40 00
  00402BDF: F2 0F 11 4D 9C     movsd       mmword ptr [ebp-64h],xmm1
  00402BE4: F2 0F 5A 4D 9C     cvtsd2ss    xmm1,mmword ptr [ebp-64h]
  00402BE9: F3 0F 59 4D E8     mulss       xmm1,dword ptr [ebp-18h]
  00402BEE: F3 0F 58 C1        addss       xmm0,xmm1
  00402BF2: BA 08 00 00 00     mov         edx,8
  00402BF7: 6B C2 00           imul        eax,edx,0
  00402BFA: F3 0F 2C C8        cvttss2si   ecx,xmm0
  00402BFE: 89 4C 05 EC        mov         dword ptr [ebp+eax-14h],ecx
  00402C02: 8B 15 34 66 40 00  mov         edx,dword ptr ds:[406634h]
  00402C08: 03 15 FC 64 40 00  add         edx,dword ptr ds:[4064FCh]
  00402C0E: F3 0F 2A C2        cvtsi2ss    xmm0,edx
  00402C12: A1 F0 64 40 00     mov         eax,dword ptr [_platformLength]
  00402C17: D1 E8              shr         eax,1
  00402C19: 89 45 D4           mov         dword ptr [ebp-2Ch],eax
  00402C1C: F2 0F 2A 4D D4     cvtsi2sd    xmm1,dword ptr [ebp-2Ch]
  00402C21: 8B 4D D4           mov         ecx,dword ptr [ebp-2Ch]
  00402C24: C1 E9 1F           shr         ecx,1Fh
  00402C27: F2 0F 58 0C CD B0  addsd       xmm1,mmword ptr __xmm@41f00000000000000000000000000000[ecx*8]
            51 40 00
  00402C30: F2 0F 11 4D 94     movsd       mmword ptr [ebp-6Ch],xmm1
  00402C35: F2 0F 5A 4D 94     cvtsd2ss    xmm1,mmword ptr [ebp-6Ch]
  00402C3A: F3 0F 59 4D E4     mulss       xmm1,dword ptr [ebp-1Ch]
  00402C3F: F3 0F 5C C1        subss       xmm0,xmm1
  00402C43: BA 08 00 00 00     mov         edx,8
  00402C48: 6B C2 00           imul        eax,edx,0
  00402C4B: F3 0F 2C C8        cvttss2si   ecx,xmm0
  00402C4F: 89 4C 05 F0        mov         dword ptr [ebp+eax-10h],ecx
  00402C53: 8B 15 30 66 40 00  mov         edx,dword ptr [_redRect]
  00402C59: 03 15 F8 64 40 00  add         edx,dword ptr [_center]
  00402C5F: F3 0F 2A C2        cvtsi2ss    xmm0,edx
  00402C63: A1 F0 64 40 00     mov         eax,dword ptr [_platformLength]
  00402C68: D1 E8              shr         eax,1
  00402C6A: 89 45 D0           mov         dword ptr [ebp-30h],eax
  00402C6D: F2 0F 2A 4D D0     cvtsi2sd    xmm1,dword ptr [ebp-30h]
  00402C72: 8B 4D D0           mov         ecx,dword ptr [ebp-30h]
  00402C75: C1 E9 1F           shr         ecx,1Fh
  00402C78: F2 0F 58 0C CD B0  addsd       xmm1,mmword ptr __xmm@41f00000000000000000000000000000[ecx*8]
            51 40 00
  00402C81: F2 0F 11 4D 8C     movsd       mmword ptr [ebp-74h],xmm1
  00402C86: F2 0F 5A 4D 8C     cvtsd2ss    xmm1,mmword ptr [ebp-74h]
  00402C8B: F3 0F 59 4D E8     mulss       xmm1,dword ptr [ebp-18h]
  00402C90: F3 0F 5C C1        subss       xmm0,xmm1
  00402C94: BA 08 00 00 00     mov         edx,8
  00402C99: C1 E2 00           shl         edx,0
  00402C9C: F3 0F 2C C0        cvttss2si   eax,xmm0
  00402CA0: 89 44 15 EC        mov         dword ptr [ebp+edx-14h],eax
  00402CA4: 8B 0D 34 66 40 00  mov         ecx,dword ptr ds:[406634h]
  00402CAA: 03 0D FC 64 40 00  add         ecx,dword ptr ds:[4064FCh]
  00402CB0: F3 0F 2A C1        cvtsi2ss    xmm0,ecx
  00402CB4: 8B 15 F0 64 40 00  mov         edx,dword ptr [_platformLength]
  00402CBA: D1 EA              shr         edx,1
  00402CBC: 89 55 CC           mov         dword ptr [ebp-34h],edx
  00402CBF: F2 0F 2A 4D CC     cvtsi2sd    xmm1,dword ptr [ebp-34h]
  00402CC4: 8B 45 CC           mov         eax,dword ptr [ebp-34h]
  00402CC7: C1 E8 1F           shr         eax,1Fh
  00402CCA: F2 0F 58 0C C5 B0  addsd       xmm1,mmword ptr __xmm@41f00000000000000000000000000000[eax*8]
            51 40 00
  00402CD3: F2 0F 11 4D 84     movsd       mmword ptr [ebp-7Ch],xmm1
  00402CD8: F2 0F 5A 4D 84     cvtsd2ss    xmm1,mmword ptr [ebp-7Ch]
  00402CDD: F3 0F 59 4D E4     mulss       xmm1,dword ptr [ebp-1Ch]
  00402CE2: F3 0F 58 C1        addss       xmm0,xmm1
  00402CE6: B9 08 00 00 00     mov         ecx,8
  00402CEB: C1 E1 00           shl         ecx,0
  00402CEE: F3 0F 2C D0        cvttss2si   edx,xmm0
  00402CF2: 89 54 0D F0        mov         dword ptr [ebp+ecx-10h],edx
  00402CF6: 6A 02              push        2
  00402CF8: 8D 45 EC           lea         eax,[ebp-14h]
  00402CFB: 50                 push        eax
  00402CFC: 8B 0D 94 65 40 00  mov         ecx,dword ptr [_hdcMem]
  00402D02: 51                 push        ecx
  00402D03: FF 15 0C 50 40 00  call        dword ptr [__imp__Polyline@12]
  00402D09: 8B 55 B8           mov         edx,dword ptr [ebp-48h]
  00402D0C: 52                 push        edx
  00402D0D: A1 94 65 40 00     mov         eax,dword ptr [_hdcMem]
  00402D12: 50                 push        eax
  00402D13: FF 15 08 50 40 00  call        dword ptr [__imp__SelectObject@8]
  00402D19: 8B 4D B4           mov         ecx,dword ptr [ebp-4Ch]
  00402D1C: 51                 push        ecx
  00402D1D: 8B 15 94 65 40 00  mov         edx,dword ptr [_hdcMem]
  00402D23: 52                 push        edx
  00402D24: FF 15 08 50 40 00  call        dword ptr [__imp__SelectObject@8]
  00402D2A: A1 34 66 40 00     mov         eax,dword ptr ds:[00406634h]
  00402D2F: 03 45 C8           add         eax,dword ptr [ebp-38h]
  00402D32: 03 05 EC 64 40 00  add         eax,dword ptr [_ballRadius]
  00402D38: 50                 push        eax
  00402D39: 8B 0D 30 66 40 00  mov         ecx,dword ptr [_redRect]
  00402D3F: 03 4D C4           add         ecx,dword ptr [ebp-3Ch]
  00402D42: 03 0D EC 64 40 00  add         ecx,dword ptr [_ballRadius]
  00402D48: 51                 push        ecx
  00402D49: 8B 15 34 66 40 00  mov         edx,dword ptr ds:[406634h]
  00402D4F: 03 55 C8           add         edx,dword ptr [ebp-38h]
  00402D52: 2B 15 EC 64 40 00  sub         edx,dword ptr [_ballRadius]
  00402D58: 52                 push        edx
  00402D59: A1 30 66 40 00     mov         eax,dword ptr [_redRect]
  00402D5E: 03 45 C4           add         eax,dword ptr [ebp-3Ch]
  00402D61: 2B 05 EC 64 40 00  sub         eax,dword ptr [_ballRadius]
  00402D67: 50                 push        eax
  00402D68: 8B 0D 94 65 40 00  mov         ecx,dword ptr [_hdcMem]
  00402D6E: 51                 push        ecx
  00402D6F: FF 15 24 50 40 00  call        dword ptr [__imp__Ellipse@20]
  00402D75: 8B 55 C0           mov         edx,dword ptr [ebp-40h]
  00402D78: 52                 push        edx
  00402D79: FF 15 18 50 40 00  call        dword ptr [__imp__DeleteObject@4]
  00402D7F: 8B 45 BC           mov         eax,dword ptr [ebp-44h]
  00402D82: 50                 push        eax
  00402D83: FF 15 18 50 40 00  call        dword ptr [__imp__DeleteObject@4]
  00402D89: 8B 4D B8           mov         ecx,dword ptr [ebp-48h]
  00402D8C: 51                 push        ecx
  00402D8D: FF 15 18 50 40 00  call        dword ptr [__imp__DeleteObject@4]
  00402D93: 8B 55 B4           mov         edx,dword ptr [ebp-4Ch]
  00402D96: 52                 push        edx
  00402D97: FF 15 18 50 40 00  call        dword ptr [__imp__DeleteObject@4]
  00402D9D: 8B 4D FC           mov         ecx,dword ptr [ebp-4]
  00402DA0: 33 CD              xor         ecx,ebp
  00402DA2: E8 3D 07 00 00     call        @__security_check_cookie@4
  00402DA7: 8B E5              mov         esp,ebp
  00402DA9: 5D                 pop         ebp
  00402DAA: C3                 ret
  00402DAB: CC CC CC CC CC                                   .....
_CreateYellowGame:
  00402DB0: 55                 push        ebp
  00402DB1: 8B EC              mov         ebp,esp
  00402DB3: 83 EC 10           sub         esp,10h
  00402DB6: A1 18 66 40 00     mov         eax,dword ptr ds:[00406618h]
  00402DBB: 2B 05 10 66 40 00  sub         eax,dword ptr [_yellowRect]
  00402DC1: 89 45 F4           mov         dword ptr [ebp-0Ch],eax
  00402DC4: 8B 0D 1C 66 40 00  mov         ecx,dword ptr ds:[40661Ch]
  00402DCA: 2B 0D 14 66 40 00  sub         ecx,dword ptr ds:[406614h]
  00402DD0: 89 4D F8           mov         dword ptr [ebp-8],ecx
  00402DD3: C7 05 BC 64 40 00  mov         dword ptr [_temperature],0
            00 00 00 00
  00402DDD: 8B 45 F4           mov         eax,dword ptr [ebp-0Ch]
  00402DE0: 99                 cdq
  00402DE1: 83 E2 03           and         edx,3
  00402DE4: 03 C2              add         eax,edx
  00402DE6: C1 F8 02           sar         eax,2
  00402DE9: A3 8C 64 40 00     mov         dword ptr [_barrierDistance],eax
  00402DEE: 8B 15 8C 64 40 00  mov         edx,dword ptr [_barrierDistance]
  00402DF4: 89 15 C8 64 40 00  mov         dword ptr [_barrierX],edx
  00402DFA: 8B 45 F8           mov         eax,dword ptr [ebp-8]
  00402DFD: 99                 cdq
  00402DFE: 83 E2 03           and         edx,3
  00402E01: 03 C2              add         eax,edx
  00402E03: C1 F8 02           sar         eax,2
  00402E06: A3 B0 64 40 00     mov         dword ptr [_barrierLength],eax
  00402E0B: C7 45 FC 00 00 00  mov         dword ptr [ebp-4],0
            00
  00402E12: EB 09              jmp         00402E1D
  00402E14: 8B 45 FC           mov         eax,dword ptr [ebp-4]
  00402E17: 83 C0 01           add         eax,1
  00402E1A: 89 45 FC           mov         dword ptr [ebp-4],eax
  00402E1D: 83 7D FC 04        cmp         dword ptr [ebp-4],4
  00402E21: 7D 46              jge         00402E69
  00402E23: FF 15 48 51 40 00  call        dword ptr [__imp__rand]
  00402E29: 8B 4D F8           mov         ecx,dword ptr [ebp-8]
  00402E2C: 2B 0D B0 64 40 00  sub         ecx,dword ptr [_barrierLength]
  00402E32: 99                 cdq
  00402E33: F7 F9              idiv        eax,ecx
  00402E35: 8B 45 FC           mov         eax,dword ptr [ebp-4]
  00402E38: 89 14 85 D0 64 40  mov         dword ptr _barrierY[eax*4],edx
            00
  00402E3F: FF 15 48 51 40 00  call        dword ptr [__imp__rand]
  00402E45: 83 E0 01           and         eax,1
  00402E48: 74 09              je          00402E53
  00402E4A: C7 45 F0 01 00 00  mov         dword ptr [ebp-10h],1
            00
  00402E51: EB 07              jmp         00402E5A
  00402E53: C7 45 F0 FF FF FF  mov         dword ptr [ebp-10h],0FFFFFFFFh
            FF
  00402E5A: 8B 4D FC           mov         ecx,dword ptr [ebp-4]
  00402E5D: 8B 55 F0           mov         edx,dword ptr [ebp-10h]
  00402E60: 89 14 8D A0 64 40  mov         dword ptr _barrierDirection[ecx*4],edx
            00
  00402E67: EB AB              jmp         00402E14
  00402E69: C7 05 B8 64 40 00  mov         dword ptr [_speed],1
            01 00 00 00
  00402E73: C7 05 E0 64 40 00  mov         dword ptr [_spacePress],0
            00 00 00 00
  00402E7D: 8B 45 F4           mov         eax,dword ptr [ebp-0Ch]
  00402E80: 99                 cdq
  00402E81: B9 06 00 00 00     mov         ecx,6
  00402E86: F7 F9              idiv        eax,ecx
  00402E88: A3 B4 64 40 00     mov         dword ptr [_diamondX],eax
  00402E8D: 8B 45 F8           mov         eax,dword ptr [ebp-8]
  00402E90: 99                 cdq
  00402E91: 2B C2              sub         eax,edx
  00402E93: D1 F8              sar         eax,1
  00402E95: A3 C4 64 40 00     mov         dword ptr [_diamondY],eax
  00402E9A: 8B 45 F4           mov         eax,dword ptr [ebp-0Ch]
  00402E9D: 99                 cdq
  00402E9E: B9 14 00 00 00     mov         ecx,14h
  00402EA3: F7 F9              idiv        eax,ecx
  00402EA5: A3 C0 64 40 00     mov         dword ptr [_diamondWidth],eax
  00402EAA: C7 05 90 64 40 00  mov         dword ptr [_broken],0
            00 00 00 00
  00402EB4: 6A 00              push        0
  00402EB6: 6A 14              push        14h
  00402EB8: 68 F8 37 01 00     push        137F8h
  00402EBD: 8B 15 C8 65 40 00  mov         edx,dword ptr [_hwnd]
  00402EC3: 52                 push        edx
  00402EC4: FF 15 80 50 40 00  call        dword ptr [__imp__SetTimer@16]
  00402ECA: 8B E5              mov         esp,ebp
  00402ECC: 5D                 pop         ebp
  00402ECD: C3                 ret
  00402ECE: CC CC                                            ..
_OnYellowTimer:
  00402ED0: 55                 push        ebp
  00402ED1: 8B EC              mov         ebp,esp
  00402ED3: 83 EC 14           sub         esp,14h
  00402ED6: 56                 push        esi
  00402ED7: A1 1C 66 40 00     mov         eax,dword ptr ds:[0040661Ch]
  00402EDC: 2B 05 14 66 40 00  sub         eax,dword ptr ds:[406614h]
  00402EE2: 89 45 F4           mov         dword ptr [ebp-0Ch],eax
  00402EE5: 83 3D 00 66 40 00  cmp         dword ptr [_pause],0
            00
  00402EEC: 74 05              je          00402EF3
  00402EEE: E9 F8 02 00 00     jmp         004031EB
  00402EF3: 8B 0D C8 64 40 00  mov         ecx,dword ptr [_barrierX]
  00402EF9: 2B 0D B8 64 40 00  sub         ecx,dword ptr [_speed]
  00402EFF: 89 0D C8 64 40 00  mov         dword ptr [_barrierX],ecx
  00402F05: 83 3D C8 64 40 00  cmp         dword ptr [_barrierX],0
            00
  00402F0C: 0F 8F 9A 00 00 00  jg          00402FAC
  00402F12: 8B 15 8C 64 40 00  mov         edx,dword ptr [_barrierDistance]
  00402F18: 89 15 C8 64 40 00  mov         dword ptr [_barrierX],edx
  00402F1E: C7 45 FC 00 00 00  mov         dword ptr [ebp-4],0
            00
  00402F25: EB 09              jmp         00402F30
  00402F27: 8B 45 FC           mov         eax,dword ptr [ebp-4]
  00402F2A: 83 C0 01           add         eax,1
  00402F2D: 89 45 FC           mov         dword ptr [ebp-4],eax
  00402F30: 83 7D FC 03        cmp         dword ptr [ebp-4],3
  00402F34: 7D 2A              jge         00402F60
  00402F36: 8B 4D FC           mov         ecx,dword ptr [ebp-4]
  00402F39: 8B 55 FC           mov         edx,dword ptr [ebp-4]
  00402F3C: 8B 04 95 D4 64 40  mov         eax,dword ptr [edx*4+4064D4h]
            00
  00402F43: 89 04 8D D0 64 40  mov         dword ptr _barrierY[ecx*4],eax
            00
  00402F4A: 8B 4D FC           mov         ecx,dword ptr [ebp-4]
  00402F4D: 8B 55 FC           mov         edx,dword ptr [ebp-4]
  00402F50: 8B 04 95 A4 64 40  mov         eax,dword ptr [edx*4+4064A4h]
            00
  00402F57: 89 04 8D A0 64 40  mov         dword ptr _barrierDirection[ecx*4],eax
            00
  00402F5E: EB C7              jmp         00402F27
  00402F60: FF 15 48 51 40 00  call        dword ptr [__imp__rand]
  00402F66: 8B 4D F4           mov         ecx,dword ptr [ebp-0Ch]
  00402F69: 2B 0D B0 64 40 00  sub         ecx,dword ptr [_barrierLength]
  00402F6F: 99                 cdq
  00402F70: F7 F9              idiv        eax,ecx
  00402F72: B8 04 00 00 00     mov         eax,4
  00402F77: 6B C8 03           imul        ecx,eax,3
  00402F7A: 89 91 D0 64 40 00  mov         dword ptr _barrierY[ecx],edx
  00402F80: FF 15 48 51 40 00  call        dword ptr [__imp__rand]
  00402F86: 83 E0 01           and         eax,1
  00402F89: 74 09              je          00402F94
  00402F8B: C7 45 F8 01 00 00  mov         dword ptr [ebp-8],1
            00
  00402F92: EB 07              jmp         00402F9B
  00402F94: C7 45 F8 FF FF FF  mov         dword ptr [ebp-8],0FFFFFFFFh
            FF
  00402F9B: BA 04 00 00 00     mov         edx,4
  00402FA0: 6B C2 03           imul        eax,edx,3
  00402FA3: 8B 4D F8           mov         ecx,dword ptr [ebp-8]
  00402FA6: 89 88 A0 64 40 00  mov         dword ptr _barrierDirection[eax],ecx
  00402FAC: C7 45 FC 00 00 00  mov         dword ptr [ebp-4],0
            00
  00402FB3: EB 09              jmp         00402FBE
  00402FB5: 8B 55 FC           mov         edx,dword ptr [ebp-4]
  00402FB8: 83 C2 01           add         edx,1
  00402FBB: 89 55 FC           mov         dword ptr [ebp-4],edx
  00402FBE: 83 7D FC 04        cmp         dword ptr [ebp-4],4
  00402FC2: 7D 5E              jge         00403022
  00402FC4: 8B 45 FC           mov         eax,dword ptr [ebp-4]
  00402FC7: 8B 0C 85 A0 64 40  mov         ecx,dword ptr _barrierDirection[eax*4]
            00
  00402FCE: 0F AF 0D B8 64 40  imul        ecx,dword ptr [_speed]
            00
  00402FD5: 8B 55 FC           mov         edx,dword ptr [ebp-4]
  00402FD8: 03 0C 95 D0 64 40  add         ecx,dword ptr _barrierY[edx*4]
            00
  00402FDF: 8B 45 FC           mov         eax,dword ptr [ebp-4]
  00402FE2: 89 0C 85 D0 64 40  mov         dword ptr _barrierY[eax*4],ecx
            00
  00402FE9: 8B 4D FC           mov         ecx,dword ptr [ebp-4]
  00402FEC: 83 3C 8D D0 64 40  cmp         dword ptr _barrierY[ecx*4],0
            00 00
  00402FF4: 7E 15              jle         0040300B
  00402FF6: 8B 55 F4           mov         edx,dword ptr [ebp-0Ch]
  00402FF9: 2B 15 B0 64 40 00  sub         edx,dword ptr [_barrierLength]
  00402FFF: 8B 45 FC           mov         eax,dword ptr [ebp-4]
  00403002: 39 14 85 D0 64 40  cmp         dword ptr _barrierY[eax*4],edx
            00
  00403009: 7C 15              jl          00403020
  0040300B: 8B 4D FC           mov         ecx,dword ptr [ebp-4]
  0040300E: 6B 14 8D A0 64 40  imul        edx,dword ptr _barrierDirection[ecx*4],0FFFFFFFFh
            00 FF
  00403016: 8B 45 FC           mov         eax,dword ptr [ebp-4]
  00403019: 89 14 85 A0 64 40  mov         dword ptr _barrierDirection[eax*4],edx
            00
  00403020: EB 93              jmp         00402FB5
  00403022: 83 3D 90 64 40 00  cmp         dword ptr [_broken],0
            00
  00403029: 75 33              jne         0040305E
  0040302B: 83 3D E0 64 40 00  cmp         dword ptr [_spacePress],0
            00
  00403032: 74 2A              je          0040305E
  00403034: 8B 0D BC 64 40 00  mov         ecx,dword ptr [_temperature]
  0040303A: 83 C1 01           add         ecx,1
  0040303D: 89 0D BC 64 40 00  mov         dword ptr [_temperature],ecx
  00403043: 81 3D BC 64 40 00  cmp         dword ptr [_temperature],0FAh
            FA 00 00 00
  0040304D: 7C 0A              jl          00403059
  0040304F: C7 05 90 64 40 00  mov         dword ptr [_broken],1
            01 00 00 00
  00403059: E9 8D 01 00 00     jmp         004031EB
  0040305E: 83 3D 90 64 40 00  cmp         dword ptr [_broken],0
            00
  00403065: 75 18              jne         0040307F
  00403067: 83 3D BC 64 40 00  cmp         dword ptr [_temperature],0
            00
  0040306E: 7E 0F              jle         0040307F
  00403070: 8B 15 BC 64 40 00  mov         edx,dword ptr [_temperature]
  00403076: 83 EA 01           sub         edx,1
  00403079: 89 15 BC 64 40 00  mov         dword ptr [_temperature],edx
  0040307F: C7 45 FC 00 00 00  mov         dword ptr [ebp-4],0
            00
  00403086: EB 09              jmp         00403091
  00403088: 8B 45 FC           mov         eax,dword ptr [ebp-4]
  0040308B: 83 C0 01           add         eax,1
  0040308E: 89 45 FC           mov         dword ptr [ebp-4],eax
  00403091: 83 7D FC 04        cmp         dword ptr [ebp-4],4
  00403095: 0F 8D 50 01 00 00  jge         004031EB
  0040309B: 8B 4D FC           mov         ecx,dword ptr [ebp-4]
  0040309E: 0F AF 0D 8C 64 40  imul        ecx,dword ptr [_barrierDistance]
            00
  004030A5: 03 0D C8 64 40 00  add         ecx,dword ptr [_barrierX]
  004030AB: 03 0D C0 64 40 00  add         ecx,dword ptr [_diamondWidth]
  004030B1: 3B 0D B4 64 40 00  cmp         ecx,dword ptr [_diamondX]
  004030B7: 0F 8C 29 01 00 00  jl          004031E6
  004030BD: 8B 55 FC           mov         edx,dword ptr [ebp-4]
  004030C0: 0F AF 15 8C 64 40  imul        edx,dword ptr [_barrierDistance]
            00
  004030C7: 03 15 C8 64 40 00  add         edx,dword ptr [_barrierX]
  004030CD: 39 15 B4 64 40 00  cmp         dword ptr [_diamondX],edx
  004030D3: 0F 8C 0D 01 00 00  jl          004031E6
  004030D9: A1 C0 64 40 00     mov         eax,dword ptr [_diamondWidth]
  004030DE: 99                 cdq
  004030DF: 2B C2              sub         eax,edx
  004030E1: D1 F8              sar         eax,1
  004030E3: 8B 0D B4 64 40 00  mov         ecx,dword ptr [_diamondX]
  004030E9: 2B C8              sub         ecx,eax
  004030EB: 8B 55 FC           mov         edx,dword ptr [ebp-4]
  004030EE: 0F AF 15 8C 64 40  imul        edx,dword ptr [_barrierDistance]
            00
  004030F5: 03 15 C8 64 40 00  add         edx,dword ptr [_barrierX]
  004030FB: 2B CA              sub         ecx,edx
  004030FD: 85 C9              test        ecx,ecx
  004030FF: 7E 29              jle         0040312A
  00403101: A1 C0 64 40 00     mov         eax,dword ptr [_diamondWidth]
  00403106: 99                 cdq
  00403107: 2B C2              sub         eax,edx
  00403109: D1 F8              sar         eax,1
  0040310B: 8B 0D B4 64 40 00  mov         ecx,dword ptr [_diamondX]
  00403111: 2B C8              sub         ecx,eax
  00403113: 8B 55 FC           mov         edx,dword ptr [ebp-4]
  00403116: 0F AF 15 8C 64 40  imul        edx,dword ptr [_barrierDistance]
            00
  0040311D: 03 15 C8 64 40 00  add         edx,dword ptr [_barrierX]
  00403123: 2B CA              sub         ecx,edx
  00403125: 89 4D F0           mov         dword ptr [ebp-10h],ecx
  00403128: EB 29              jmp         00403153
  0040312A: A1 C0 64 40 00     mov         eax,dword ptr [_diamondWidth]
  0040312F: 99                 cdq
  00403130: 2B C2              sub         eax,edx
  00403132: D1 F8              sar         eax,1
  00403134: 8B 0D B4 64 40 00  mov         ecx,dword ptr [_diamondX]
  0040313A: 2B C8              sub         ecx,eax
  0040313C: 8B 55 FC           mov         edx,dword ptr [ebp-4]
  0040313F: 0F AF 15 8C 64 40  imul        edx,dword ptr [_barrierDistance]
            00
  00403146: 03 15 C8 64 40 00  add         edx,dword ptr [_barrierX]
  0040314C: 2B CA              sub         ecx,edx
  0040314E: F7 D9              neg         ecx
  00403150: 89 4D F0           mov         dword ptr [ebp-10h],ecx
  00403153: A1 B0 64 40 00     mov         eax,dword ptr [_barrierLength]
  00403158: 99                 cdq
  00403159: 2B C2              sub         eax,edx
  0040315B: D1 F8              sar         eax,1
  0040315D: 8B 4D FC           mov         ecx,dword ptr [ebp-4]
  00403160: 8B 14 8D D0 64 40  mov         edx,dword ptr _barrierY[ecx*4]
            00
  00403167: 03 D0              add         edx,eax
  00403169: A1 C4 64 40 00     mov         eax,dword ptr [_diamondY]
  0040316E: 2B C2              sub         eax,edx
  00403170: 85 C0              test        eax,eax
  00403172: 7E 22              jle         00403196
  00403174: A1 B0 64 40 00     mov         eax,dword ptr [_barrierLength]
  00403179: 99                 cdq
  0040317A: 2B C2              sub         eax,edx
  0040317C: D1 F8              sar         eax,1
  0040317E: 8B 4D FC           mov         ecx,dword ptr [ebp-4]
  00403181: 8B 14 8D D0 64 40  mov         edx,dword ptr _barrierY[ecx*4]
            00
  00403188: 03 D0              add         edx,eax
  0040318A: A1 C4 64 40 00     mov         eax,dword ptr [_diamondY]
  0040318F: 2B C2              sub         eax,edx
  00403191: 89 45 EC           mov         dword ptr [ebp-14h],eax
  00403194: EB 22              jmp         004031B8
  00403196: A1 B0 64 40 00     mov         eax,dword ptr [_barrierLength]
  0040319B: 99                 cdq
  0040319C: 2B C2              sub         eax,edx
  0040319E: D1 F8              sar         eax,1
  004031A0: 8B 4D FC           mov         ecx,dword ptr [ebp-4]
  004031A3: 8B 14 8D D0 64 40  mov         edx,dword ptr _barrierY[ecx*4]
            00
  004031AA: 03 D0              add         edx,eax
  004031AC: A1 C4 64 40 00     mov         eax,dword ptr [_diamondY]
  004031B1: 2B C2              sub         eax,edx
  004031B3: F7 D8              neg         eax
  004031B5: 89 45 EC           mov         dword ptr [ebp-14h],eax
  004031B8: 8B 4D F0           mov         ecx,dword ptr [ebp-10h]
  004031BB: 03 4D EC           add         ecx,dword ptr [ebp-14h]
  004031BE: A1 C0 64 40 00     mov         eax,dword ptr [_diamondWidth]
  004031C3: 99                 cdq
  004031C4: 2B C2              sub         eax,edx
  004031C6: 8B F0              mov         esi,eax
  004031C8: D1 FE              sar         esi,1
  004031CA: A1 B0 64 40 00     mov         eax,dword ptr [_barrierLength]
  004031CF: 99                 cdq
  004031D0: 2B C2              sub         eax,edx
  004031D2: D1 F8              sar         eax,1
  004031D4: 03 F0              add         esi,eax
  004031D6: 3B CE              cmp         ecx,esi
  004031D8: 7F 0C              jg          004031E6
  004031DA: C7 05 04 66 40 00  mov         dword ptr [_dead],1
            01 00 00 00
  004031E4: EB 05              jmp         004031EB
  004031E6: E9 9D FE FF FF     jmp         00403088
  004031EB: 5E                 pop         esi
  004031EC: 8B E5              mov         esp,ebp
  004031EE: 5D                 pop         ebp
  004031EF: C3                 ret
_OnYellowKeyDown:
  004031F0: 55                 push        ebp
  004031F1: 8B EC              mov         ebp,esp
  004031F3: 51                 push        ecx
  004031F4: 8B 45 08           mov         eax,dword ptr [ebp+8]
  004031F7: 89 45 FC           mov         dword ptr [ebp-4],eax
  004031FA: 83 7D FC 20        cmp         dword ptr [ebp-4],20h
  004031FE: 74 02              je          00403202
  00403200: EB 0A              jmp         0040320C
  00403202: C7 05 E0 64 40 00  mov         dword ptr [_spacePress],1
            01 00 00 00
  0040320C: 8B E5              mov         esp,ebp
  0040320E: 5D                 pop         ebp
  0040320F: C3                 ret
_OnYellowKeyUp:
  00403210: 55                 push        ebp
  00403211: 8B EC              mov         ebp,esp
  00403213: 51                 push        ecx
  00403214: 8B 45 08           mov         eax,dword ptr [ebp+8]
  00403217: 89 45 FC           mov         dword ptr [ebp-4],eax
  0040321A: 83 7D FC 20        cmp         dword ptr [ebp-4],20h
  0040321E: 74 02              je          00403222
  00403220: EB 0A              jmp         0040322C
  00403222: C7 05 E0 64 40 00  mov         dword ptr [_spacePress],0
            00 00 00 00
  0040322C: 8B E5              mov         esp,ebp
  0040322E: 5D                 pop         ebp
  0040322F: C3                 ret
_YellowGamePaint:
  00403230: 55                 push        ebp
  00403231: 8B EC              mov         ebp,esp
  00403233: 83 EC 38           sub         esp,38h
  00403236: A1 04 60 40 00     mov         eax,dword ptr [___security_cookie]
  0040323B: 33 C5              xor         eax,ebp
  0040323D: 89 45 FC           mov         dword ptr [ebp-4],eax
  00403240: 68 FF FF B4 00     push        0B4FFFFh
  00403245: FF 15 1C 50 40 00  call        dword ptr [__imp__CreateSolidBrush@4]
  0040324B: 89 45 D0           mov         dword ptr [ebp-30h],eax
  0040324E: 83 3D E0 64 40 00  cmp         dword ptr [_spacePress],0
            00
  00403255: 74 12              je          00403269
  00403257: 83 3D 90 64 40 00  cmp         dword ptr [_broken],0
            00
  0040325E: 75 09              jne         00403269
  00403260: C7 45 E4 FF FF FF  mov         dword ptr [ebp-1Ch],0FFFFFFh
            00
  00403267: EB 07              jmp         00403270
  00403269: C7 45 E4 00 00 00  mov         dword ptr [ebp-1Ch],0
            00
  00403270: 8B 45 E4           mov         eax,dword ptr [ebp-1Ch]
  00403273: 50                 push        eax
  00403274: A1 C0 64 40 00     mov         eax,dword ptr [_diamondWidth]
  00403279: 99                 cdq
  0040327A: 83 E2 03           and         edx,3
  0040327D: 03 C2              add         eax,edx
  0040327F: C1 F8 02           sar         eax,2
  00403282: 50                 push        eax
  00403283: 6A 00              push        0
  00403285: FF 15 10 50 40 00  call        dword ptr [__imp__CreatePen@12]
  0040328B: 89 45 CC           mov         dword ptr [ebp-34h],eax
  0040328E: 83 3D 90 64 40 00  cmp         dword ptr [_broken],0
            00
  00403295: 74 09              je          004032A0
  00403297: C7 45 E0 96 96 96  mov         dword ptr [ebp-20h],969696h
            00
  0040329E: EB 1A              jmp         004032BA
  004032A0: B9 FF 00 00 00     mov         ecx,0FFh
  004032A5: 2B 0D BC 64 40 00  sub         ecx,dword ptr [_temperature]
  004032AB: 0F B6 D1           movzx       edx,cl
  004032AE: C1 E2 08           shl         edx,8
  004032B1: 81 CA FF 00 00 00  or          edx,0FFh
  004032B7: 89 55 E0           mov         dword ptr [ebp-20h],edx
  004032BA: 8B 45 E0           mov         eax,dword ptr [ebp-20h]
  004032BD: 50                 push        eax
  004032BE: 6A 01              push        1
  004032C0: 6A 00              push        0
  004032C2: FF 15 10 50 40 00  call        dword ptr [__imp__CreatePen@12]
  004032C8: 89 45 C8           mov         dword ptr [ebp-38h],eax
  004032CB: 8B 4D D0           mov         ecx,dword ptr [ebp-30h]
  004032CE: 51                 push        ecx
  004032CF: 8B 15 94 65 40 00  mov         edx,dword ptr [_hdcMem]
  004032D5: 52                 push        edx
  004032D6: FF 15 08 50 40 00  call        dword ptr [__imp__SelectObject@8]
  004032DC: A1 1C 66 40 00     mov         eax,dword ptr ds:[0040661Ch]
  004032E1: 50                 push        eax
  004032E2: 8B 0D 18 66 40 00  mov         ecx,dword ptr ds:[406618h]
  004032E8: 51                 push        ecx
  004032E9: 8B 15 14 66 40 00  mov         edx,dword ptr ds:[406614h]
  004032EF: 52                 push        edx
  004032F0: A1 10 66 40 00     mov         eax,dword ptr [_yellowRect]
  004032F5: 50                 push        eax
  004032F6: 8B 0D 94 65 40 00  mov         ecx,dword ptr [_hdcMem]
  004032FC: 51                 push        ecx
  004032FD: FF 15 14 50 40 00  call        dword ptr [__imp__Rectangle@20]
  00403303: 8B 55 CC           mov         edx,dword ptr [ebp-34h]
  00403306: 52                 push        edx
  00403307: A1 94 65 40 00     mov         eax,dword ptr [_hdcMem]
  0040330C: 50                 push        eax
  0040330D: FF 15 08 50 40 00  call        dword ptr [__imp__SelectObject@8]
  00403313: C7 45 E8 00 00 00  mov         dword ptr [ebp-18h],0
            00
  0040331A: EB 09              jmp         00403325
  0040331C: 8B 4D E8           mov         ecx,dword ptr [ebp-18h]
  0040331F: 83 C1 01           add         ecx,1
  00403322: 89 4D E8           mov         dword ptr [ebp-18h],ecx
  00403325: 83 7D E8 04        cmp         dword ptr [ebp-18h],4
  00403329: 0F 8D 8F 00 00 00  jge         004033BE
  0040332F: 8B 15 10 66 40 00  mov         edx,dword ptr [_yellowRect]
  00403335: 03 15 C8 64 40 00  add         edx,dword ptr [_barrierX]
  0040333B: 8B 45 E8           mov         eax,dword ptr [ebp-18h]
  0040333E: 0F AF 05 8C 64 40  imul        eax,dword ptr [_barrierDistance]
            00
  00403345: 03 D0              add         edx,eax
  00403347: 89 55 DC           mov         dword ptr [ebp-24h],edx
  0040334A: B9 08 00 00 00     mov         ecx,8
  0040334F: C1 E1 00           shl         ecx,0
  00403352: 8B 55 DC           mov         edx,dword ptr [ebp-24h]
  00403355: 89 54 0D EC        mov         dword ptr [ebp+ecx-14h],edx
  00403359: B8 08 00 00 00     mov         eax,8
  0040335E: 6B C8 00           imul        ecx,eax,0
  00403361: 8B 55 DC           mov         edx,dword ptr [ebp-24h]
  00403364: 89 54 0D EC        mov         dword ptr [ebp+ecx-14h],edx
  00403368: 8B 45 E8           mov         eax,dword ptr [ebp-18h]
  0040336B: 8B 0D 14 66 40 00  mov         ecx,dword ptr ds:[406614h]
  00403371: 03 0C 85 D0 64 40  add         ecx,dword ptr _barrierY[eax*4]
            00
  00403378: BA 08 00 00 00     mov         edx,8
  0040337D: 6B C2 00           imul        eax,edx,0
  00403380: 89 4C 05 F0        mov         dword ptr [ebp+eax-10h],ecx
  00403384: 8B 4D E8           mov         ecx,dword ptr [ebp-18h]
  00403387: 8B 15 14 66 40 00  mov         edx,dword ptr ds:[406614h]
  0040338D: 03 14 8D D0 64 40  add         edx,dword ptr _barrierY[ecx*4]
            00
  00403394: 03 15 B0 64 40 00  add         edx,dword ptr [_barrierLength]
  0040339A: B8 08 00 00 00     mov         eax,8
  0040339F: C1 E0 00           shl         eax,0
  004033A2: 89 54 05 F0        mov         dword ptr [ebp+eax-10h],edx
  004033A6: 6A 02              push        2
  004033A8: 8D 4D EC           lea         ecx,[ebp-14h]
  004033AB: 51                 push        ecx
  004033AC: 8B 15 94 65 40 00  mov         edx,dword ptr [_hdcMem]
  004033B2: 52                 push        edx
  004033B3: FF 15 0C 50 40 00  call        dword ptr [__imp__Polyline@12]
  004033B9: E9 5E FF FF FF     jmp         0040331C
  004033BE: 8B 45 C8           mov         eax,dword ptr [ebp-38h]
  004033C1: 50                 push        eax
  004033C2: 8B 0D 94 65 40 00  mov         ecx,dword ptr [_hdcMem]
  004033C8: 51                 push        ecx
  004033C9: FF 15 08 50 40 00  call        dword ptr [__imp__SelectObject@8]
  004033CF: C7 45 E8 00 00 00  mov         dword ptr [ebp-18h],0
            00
  004033D6: EB 09              jmp         004033E1
  004033D8: 8B 55 E8           mov         edx,dword ptr [ebp-18h]
  004033DB: 83 C2 01           add         edx,1
  004033DE: 89 55 E8           mov         dword ptr [ebp-18h],edx
  004033E1: A1 C0 64 40 00     mov         eax,dword ptr [_diamondWidth]
  004033E6: 99                 cdq
  004033E7: 2B C2              sub         eax,edx
  004033E9: D1 F8              sar         eax,1
  004033EB: 39 45 E8           cmp         dword ptr [ebp-18h],eax
  004033EE: 0F 8F C4 00 00 00  jg          004034B8
  004033F4: A1 14 66 40 00     mov         eax,dword ptr ds:[00406614h]
  004033F9: 03 05 C4 64 40 00  add         eax,dword ptr [_diamondY]
  004033FF: 2B 45 E8           sub         eax,dword ptr [ebp-18h]
  00403402: B9 08 00 00 00     mov         ecx,8
  00403407: 6B D1 00           imul        edx,ecx,0
  0040340A: 89 44 15 F0        mov         dword ptr [ebp+edx-10h],eax
  0040340E: A1 14 66 40 00     mov         eax,dword ptr ds:[00406614h]
  00403413: 03 05 C4 64 40 00  add         eax,dword ptr [_diamondY]
  00403419: 03 45 E8           add         eax,dword ptr [ebp-18h]
  0040341C: B9 08 00 00 00     mov         ecx,8
  00403421: C1 E1 00           shl         ecx,0
  00403424: 89 44 0D F0        mov         dword ptr [ebp+ecx-10h],eax
  00403428: 8B 15 10 66 40 00  mov         edx,dword ptr [_yellowRect]
  0040342E: 03 15 B4 64 40 00  add         edx,dword ptr [_diamondX]
  00403434: 2B 55 E8           sub         edx,dword ptr [ebp-18h]
  00403437: 89 55 D8           mov         dword ptr [ebp-28h],edx
  0040343A: B8 08 00 00 00     mov         eax,8
  0040343F: C1 E0 00           shl         eax,0
  00403442: 8B 4D D8           mov         ecx,dword ptr [ebp-28h]
  00403445: 89 4C 05 EC        mov         dword ptr [ebp+eax-14h],ecx
  00403449: BA 08 00 00 00     mov         edx,8
  0040344E: 6B C2 00           imul        eax,edx,0
  00403451: 8B 4D D8           mov         ecx,dword ptr [ebp-28h]
  00403454: 89 4C 05 EC        mov         dword ptr [ebp+eax-14h],ecx
  00403458: 6A 02              push        2
  0040345A: 8D 55 EC           lea         edx,[ebp-14h]
  0040345D: 52                 push        edx
  0040345E: A1 94 65 40 00     mov         eax,dword ptr [_hdcMem]
  00403463: 50                 push        eax
  00403464: FF 15 0C 50 40 00  call        dword ptr [__imp__Polyline@12]
  0040346A: 8B 0D 10 66 40 00  mov         ecx,dword ptr [_yellowRect]
  00403470: 03 0D B4 64 40 00  add         ecx,dword ptr [_diamondX]
  00403476: 2B 0D C0 64 40 00  sub         ecx,dword ptr [_diamondWidth]
  0040347C: 03 4D E8           add         ecx,dword ptr [ebp-18h]
  0040347F: 89 4D D4           mov         dword ptr [ebp-2Ch],ecx
  00403482: BA 08 00 00 00     mov         edx,8
  00403487: C1 E2 00           shl         edx,0
  0040348A: 8B 45 D4           mov         eax,dword ptr [ebp-2Ch]
  0040348D: 89 44 15 EC        mov         dword ptr [ebp+edx-14h],eax
  00403491: B9 08 00 00 00     mov         ecx,8
  00403496: 6B D1 00           imul        edx,ecx,0
  00403499: 8B 45 D4           mov         eax,dword ptr [ebp-2Ch]
  0040349C: 89 44 15 EC        mov         dword ptr [ebp+edx-14h],eax
  004034A0: 6A 02              push        2
  004034A2: 8D 4D EC           lea         ecx,[ebp-14h]
  004034A5: 51                 push        ecx
  004034A6: 8B 15 94 65 40 00  mov         edx,dword ptr [_hdcMem]
  004034AC: 52                 push        edx
  004034AD: FF 15 0C 50 40 00  call        dword ptr [__imp__Polyline@12]
  004034B3: E9 20 FF FF FF     jmp         004033D8
  004034B8: 8B 45 D0           mov         eax,dword ptr [ebp-30h]
  004034BB: 50                 push        eax
  004034BC: FF 15 18 50 40 00  call        dword ptr [__imp__DeleteObject@4]
  004034C2: 8B 4D CC           mov         ecx,dword ptr [ebp-34h]
  004034C5: 51                 push        ecx
  004034C6: FF 15 18 50 40 00  call        dword ptr [__imp__DeleteObject@4]
  004034CC: 8B 55 C8           mov         edx,dword ptr [ebp-38h]
  004034CF: 52                 push        edx
  004034D0: FF 15 18 50 40 00  call        dword ptr [__imp__DeleteObject@4]
  004034D6: 8B 4D FC           mov         ecx,dword ptr [ebp-4]
  004034D9: 33 CD              xor         ecx,ebp
  004034DB: E8 04 00 00 00     call        @__security_check_cookie@4
  004034E0: 8B E5              mov         esp,ebp
  004034E2: 5D                 pop         ebp
  004034E3: C3                 ret
@__security_check_cookie@4:
  004034E4: 3B 0D 04 60 40 00  cmp         ecx,dword ptr [___security_cookie]
  004034EA: F2 75 02           bnd jne     004034EF
  004034ED: F2 C3              bnd ret
  004034EF: F2 E9 73 02 00 00  bnd jmp     ___report_gsfailure
pre_c_initialization:
  004034F5: 56                 push        esi
  004034F6: 6A 02              push        2
  004034F8: E8 8A 0B 00 00     call        __set_app_type
  004034FD: E8 7E 06 00 00     call        __get_startup_file_mode
  00403502: 50                 push        eax
  00403503: E8 B5 0B 00 00     call        __set_fmode
  00403508: E8 D4 0B 00 00     call        ___p__commode
  0040350D: 8B F0              mov         esi,eax
  0040350F: E8 69 06 00 00     call        __get_startup_commit_mode
  00403514: 6A 01              push        1
  00403516: 89 06              mov         dword ptr [esi],eax
  00403518: E8 F3 03 00 00     call        ___scrt_initialize_onexit_tables
  0040351D: 83 C4 0C           add         esp,0Ch
  00403520: 5E                 pop         esi
  00403521: 84 C0              test        al,al
  00403523: 74 73              je          00403598
  00403525: DB E2              fnclex
  00403527: E8 C1 08 00 00     call        __RTC_Initialize
  0040352C: 68 19 3E 40 00     push        offset __RTC_Terminate
  00403531: E8 93 05 00 00     call        _atexit
  00403536: E8 3E 06 00 00     call        __get_startup_argv_mode
  0040353B: 50                 push        eax
  0040353C: E8 52 0B 00 00     call        __configure_narrow_argv
  00403541: 59                 pop         ecx
  00403542: 59                 pop         ecx
  00403543: 85 C0              test        eax,eax
  00403545: 75 51              jne         00403598
  00403547: E8 40 06 00 00     call        ?__scrt_initialize_type_info@@YAXXZ
  0040354C: E8 96 06 00 00     call        ___scrt_is_user_matherr_present
  00403551: 85 C0              test        eax,eax
  00403553: 74 0B              je          00403560
  00403555: 68 76 3B 40 00     push        offset __matherr
  0040355A: E8 2E 0B 00 00     call        ___setusermatherr
  0040355F: 59                 pop         ecx
  00403560: E8 57 06 00 00     call        __initialize_invalid_parameter_handler
  00403565: E8 53 06 00 00     call        __initialize_denormal_control
  0040356A: E8 2C 06 00 00     call        __initialize_default_precision
  0040356F: E8 15 06 00 00     call        __get_startup_thread_locale_mode
  00403574: 50                 push        eax
  00403575: E8 5B 0B 00 00     call        __configthreadlocale
  0040357A: 59                 pop         ecx
  0040357B: E8 18 06 00 00     call        __should_initialize_environment
  00403580: 84 C0              test        al,al
  00403582: 74 05              je          00403589
  00403584: E8 10 0B 00 00     call        __initialize_narrow_environment
  00403589: E8 C1 07 00 00     call        ___scrt_initialize_winrt
  0040358E: E8 B7 07 00 00     call        ___scrt_initialize_mta
  00403593: 85 C0              test        eax,eax
  00403595: 75 01              jne         00403598
  00403597: C3                 ret
  00403598: 6A 07              push        7
  0040359A: E8 60 06 00 00     call        ___scrt_fastfail
  0040359F: CC                 int         3
post_pgo_initialization:
  004035A0: E8 25 06 00 00     call        ___scrt_initialize_default_local_stdio_options
  004035A5: 33 C0              xor         eax,eax
  004035A7: C3                 ret
pre_cpp_initialization:
  004035A8: E8 E8 07 00 00     call        ___scrt_set_unhandled_exception_filter
  004035AD: E8 D4 05 00 00     call        __get_startup_new_mode
  004035B2: 50                 push        eax
  004035B3: E8 23 0B 00 00     call        __set_new_mode
  004035B8: 59                 pop         ecx
  004035B9: C3                 ret
__scrt_common_main_seh:
  004035BA: 6A 14              push        14h
  004035BC: 68 38 56 40 00     push        405638h
  004035C1: E8 8A 08 00 00     call        __SEH_prolog4
  004035C6: 6A 01              push        1
  004035C8: E8 0A 03 00 00     call        ___scrt_initialize_crt
  004035CD: 59                 pop         ecx
  004035CE: 84 C0              test        al,al
  004035D0: 0F 84 4A 01 00 00  je          00403720
  004035D6: 32 DB              xor         bl,bl
  004035D8: 88 5D E7           mov         byte ptr [ebp-19h],bl
  004035DB: 83 65 FC 00        and         dword ptr [ebp-4],0
  004035DF: E8 C1 02 00 00     call        ___scrt_acquire_startup_lock
  004035E4: 88 45 DC           mov         byte ptr [ebp-24h],al
  004035E7: A1 3C 64 40 00     mov         eax,dword ptr [___scrt_current_native_startup_state]
  004035EC: 33 C9              xor         ecx,ecx
  004035EE: 41                 inc         ecx
  004035EF: 3B C1              cmp         eax,ecx
  004035F1: 0F 84 29 01 00 00  je          00403720
  004035F7: 85 C0              test        eax,eax
  004035F9: 75 49              jne         00403644
  004035FB: 89 0D 3C 64 40 00  mov         dword ptr [___scrt_current_native_startup_state],ecx
  00403601: 68 6C 51 40 00     push        offset ___xi_z
  00403606: 68 60 51 40 00     push        offset ___xi_a
  0040360B: E8 9B 0A 00 00     call        __initterm_e
  00403610: 59                 pop         ecx
  00403611: 59                 pop         ecx
  00403612: 85 C0              test        eax,eax
  00403614: 74 11              je          00403627
  00403616: C7 45 FC FE FF FF  mov         dword ptr [ebp-4],0FFFFFFFEh
            FF
  0040361D: B8 FF 00 00 00     mov         eax,0FFh
  00403622: E9 E9 00 00 00     jmp         00403710
  00403627: 68 5C 51 40 00     push        offset ___xc_z
  0040362C: 68 54 51 40 00     push        offset ___xc_a
  00403631: E8 6F 0A 00 00     call        __initterm
  00403636: 59                 pop         ecx
  00403637: 59                 pop         ecx
  00403638: C7 05 3C 64 40 00  mov         dword ptr [___scrt_current_native_startup_state],2
            02 00 00 00
  00403642: EB 05              jmp         00403649
  00403644: 8A D9              mov         bl,cl
  00403646: 88 5D E7           mov         byte ptr [ebp-19h],bl
  00403649: FF 75 DC           push        dword ptr [ebp-24h]
  0040364C: E8 F8 03 00 00     call        ___scrt_release_startup_lock
  00403651: 59                 pop         ecx
  00403652: E8 9C 05 00 00     call        ___scrt_get_dyn_tls_init_callback
  00403657: 8B F0              mov         esi,eax
  00403659: 33 FF              xor         edi,edi
  0040365B: 39 3E              cmp         dword ptr [esi],edi
  0040365D: 74 1B              je          0040367A
  0040365F: 56                 push        esi
  00403660: E8 50 03 00 00     call        ___scrt_is_nonwritable_in_current_image
  00403665: 59                 pop         ecx
  00403666: 84 C0              test        al,al
  00403668: 74 10              je          0040367A
  0040366A: 8B 36              mov         esi,dword ptr [esi]
  0040366C: 57                 push        edi
  0040366D: 6A 02              push        2
  0040366F: 57                 push        edi
  00403670: 8B CE              mov         ecx,esi
  00403672: FF 15 50 51 40 00  call        dword ptr [___guard_check_icall_fptr]
  00403678: FF D6              call        esi
  0040367A: E8 7A 05 00 00     call        ___scrt_get_dyn_tls_dtor_callback
  0040367F: 8B F0              mov         esi,eax
  00403681: 39 3E              cmp         dword ptr [esi],edi
  00403683: 74 13              je          00403698
  00403685: 56                 push        esi
  00403686: E8 2A 03 00 00     call        ___scrt_is_nonwritable_in_current_image
  0040368B: 59                 pop         ecx
  0040368C: 84 C0              test        al,al
  0040368E: 74 08              je          00403698
  00403690: FF 36              push        dword ptr [esi]
  00403692: E8 38 0A 00 00     call        __register_thread_local_exe_atexit_callback
  00403697: 59                 pop         ecx
  00403698: E8 7C 06 00 00     call        ___scrt_get_show_window_mode
  0040369D: 0F B7 C0           movzx       eax,ax
  004036A0: 50                 push        eax
  004036A1: E8 F9 09 00 00     call        __get_narrow_winmain_command_line
  004036A6: 50                 push        eax
  004036A7: 57                 push        edi
  004036A8: 68 00 00 40 00     push        400000h
  004036AD: E8 7E EF FF FF     call        _WinMain@16
  004036B2: 8B F0              mov         esi,eax
  004036B4: E8 99 06 00 00     call        ___scrt_is_managed_app
  004036B9: 84 C0              test        al,al
  004036BB: 74 6A              je          00403727
  004036BD: 84 DB              test        bl,bl
  004036BF: 75 05              jne         004036C6
  004036C1: E8 FD 09 00 00     call        __cexit
  004036C6: 57                 push        edi
  004036C7: 6A 01              push        1
  004036C9: E8 98 03 00 00     call        ___scrt_uninitialize_crt
  004036CE: 59                 pop         ecx
  004036CF: 59                 pop         ecx
  004036D0: C7 45 FC FE FF FF  mov         dword ptr [ebp-4],0FFFFFFFEh
            FF
  004036D7: 8B C6              mov         eax,esi
  004036D9: EB 35              jmp         00403710
  004036DB: 8B 4D EC           mov         ecx,dword ptr [ebp-14h]
  004036DE: 8B 01              mov         eax,dword ptr [ecx]
  004036E0: 8B 00              mov         eax,dword ptr [eax]
  004036E2: 89 45 E0           mov         dword ptr [ebp-20h],eax
  004036E5: 51                 push        ecx
  004036E6: 50                 push        eax
  004036E7: E8 95 09 00 00     call        __seh_filter_exe
  004036EC: 59                 pop         ecx
  004036ED: 59                 pop         ecx
  004036EE: C3                 ret
  004036EF: 8B 65 E8           mov         esp,dword ptr [ebp-18h]
  004036F2: E8 5B 06 00 00     call        ___scrt_is_managed_app
  004036F7: 84 C0              test        al,al
  004036F9: 74 32              je          0040372D
  004036FB: 80 7D E7 00        cmp         byte ptr [ebp-19h],0
  004036FF: 75 05              jne         00403706
  00403701: E8 C3 09 00 00     call        __c_exit
  00403706: C7 45 FC FE FF FF  mov         dword ptr [ebp-4],0FFFFFFFEh
            FF
  0040370D: 8B 45 E0           mov         eax,dword ptr [ebp-20h]
  00403710: 8B 4D F0           mov         ecx,dword ptr [ebp-10h]
  00403713: 64 89 0D 00 00 00  mov         dword ptr fs:[0],ecx
            00
  0040371A: 59                 pop         ecx
  0040371B: 5F                 pop         edi
  0040371C: 5E                 pop         esi
  0040371D: 5B                 pop         ebx
  0040371E: C9                 leave
  0040371F: C3                 ret
  00403720: 6A 07              push        7
  00403722: E8 D8 04 00 00     call        ___scrt_fastfail
  00403727: 56                 push        esi
  00403728: E8 84 09 00 00     call        _exit
  0040372D: FF 75 E0           push        dword ptr [ebp-20h]
  00403730: E8 82 09 00 00     call        __exit
  00403735: CC                 int         3
_WinMainCRTStartup:
  00403736: E8 F0 03 00 00     call        ___security_init_cookie
  0040373B: E9 7A FE FF FF     jmp         004035BA
___raise_securityfailure:
  00403740: 55                 push        ebp
  00403741: 8B EC              mov         ebp,esp
  00403743: 6A 00              push        0
  00403745: FF 15 5C 50 40 00  call        dword ptr [__imp__SetUnhandledExceptionFilter@4]
  0040374B: FF 75 08           push        dword ptr [ebp+8]
  0040374E: FF 15 60 50 40 00  call        dword ptr [__imp__UnhandledExceptionFilter@4]
  00403754: 68 09 04 00 C0     push        0C0000409h
  00403759: FF 15 58 50 40 00  call        dword ptr [__imp__GetCurrentProcess@0]
  0040375F: 50                 push        eax
  00403760: FF 15 54 50 40 00  call        dword ptr [__imp__TerminateProcess@8]
  00403766: 5D                 pop         ebp
  00403767: C3                 ret
___report_gsfailure:
  00403768: 55                 push        ebp
  00403769: 8B EC              mov         ebp,esp
  0040376B: 81 EC 24 03 00 00  sub         esp,324h
  00403771: 6A 17              push        17h
  00403773: E8 8D 09 00 00     call        _IsProcessorFeaturePresent@4
  00403778: 85 C0              test        eax,eax
  0040377A: 74 05              je          00403781
  0040377C: 6A 02              push        2
  0040377E: 59                 pop         ecx
  0040377F: CD 29              int         29h
  00403781: A3 20 62 40 00     mov         dword ptr ds:[00406220h],eax
  00403786: 89 0D 1C 62 40 00  mov         dword ptr ds:[40621Ch],ecx
  0040378C: 89 15 18 62 40 00  mov         dword ptr ds:[406218h],edx
  00403792: 89 1D 14 62 40 00  mov         dword ptr ds:[406214h],ebx
  00403798: 89 35 10 62 40 00  mov         dword ptr ds:[406210h],esi
  0040379E: 89 3D 0C 62 40 00  mov         dword ptr ds:[40620Ch],edi
  004037A4: 66 8C 15 38 62 40  mov         word ptr ds:[406238h],ss
            00
  004037AB: 66 8C 0D 2C 62 40  mov         word ptr ds:[40622Ch],cs
            00
  004037B2: 66 8C 1D 08 62 40  mov         word ptr ds:[406208h],ds
            00
  004037B9: 66 8C 05 04 62 40  mov         word ptr ds:[406204h],es
            00
  004037C0: 66 8C 25 00 62 40  mov         word ptr ds:[406200h],fs
            00
  004037C7: 66 8C 2D FC 61 40  mov         word ptr ds:[4061FCh],gs
            00
  004037CE: 9C                 pushfd
  004037CF: 8F 05 30 62 40 00  pop         dword ptr ds:[406230h]
  004037D5: 8B 45 00           mov         eax,dword ptr [ebp]
  004037D8: A3 24 62 40 00     mov         dword ptr ds:[00406224h],eax
  004037DD: 8B 45 04           mov         eax,dword ptr [ebp+4]
  004037E0: A3 28 62 40 00     mov         dword ptr ds:[00406228h],eax
  004037E5: 8D 45 08           lea         eax,[ebp+8]
  004037E8: A3 34 62 40 00     mov         dword ptr ds:[00406234h],eax
  004037ED: 8B 85 DC FC FF FF  mov         eax,dword ptr [ebp-324h]
  004037F3: C7 05 70 61 40 00  mov         dword ptr ds:[406170h],10001h
            01 00 01 00
  004037FD: A1 28 62 40 00     mov         eax,dword ptr ds:[00406228h]
  00403802: A3 2C 61 40 00     mov         dword ptr ds:[0040612Ch],eax
  00403807: C7 05 20 61 40 00  mov         dword ptr ds:[406120h],0C0000409h
            09 04 00 C0
  00403811: C7 05 24 61 40 00  mov         dword ptr ds:[406124h],1
            01 00 00 00
  0040381B: C7 05 30 61 40 00  mov         dword ptr ds:[406130h],1
            01 00 00 00
  00403825: 6A 04              push        4
  00403827: 58                 pop         eax
  00403828: 6B C0 00           imul        eax,eax,0
  0040382B: C7 80 34 61 40 00  mov         dword ptr [eax+406134h],2
            02 00 00 00
  00403835: 6A 04              push        4
  00403837: 58                 pop         eax
  00403838: 6B C0 00           imul        eax,eax,0
  0040383B: 8B 0D 04 60 40 00  mov         ecx,dword ptr [___security_cookie]
  00403841: 89 4C 05 F8        mov         dword ptr [ebp+eax-8],ecx
  00403845: 6A 04              push        4
  00403847: 58                 pop         eax
  00403848: C1 E0 00           shl         eax,0
  0040384B: 8B 0D 00 60 40 00  mov         ecx,dword ptr [___security_cookie_complement]
  00403851: 89 4C 05 F8        mov         dword ptr [ebp+eax-8],ecx
  00403855: 68 80 51 40 00     push        405180h
  0040385A: E8 E1 FE FF FF     call        ___raise_securityfailure
  0040385F: C9                 leave
  00403860: C3                 ret
find_pe_section:
  00403861: 55                 push        ebp
  00403862: 8B EC              mov         ebp,esp
  00403864: 8B 45 08           mov         eax,dword ptr [ebp+8]
  00403867: 56                 push        esi
  00403868: 8B 48 3C           mov         ecx,dword ptr [eax+3Ch]
  0040386B: 03 C8              add         ecx,eax
  0040386D: 0F B7 41 14        movzx       eax,word ptr [ecx+14h]
  00403871: 8D 51 18           lea         edx,[ecx+18h]
  00403874: 03 D0              add         edx,eax
  00403876: 0F B7 41 06        movzx       eax,word ptr [ecx+6]
  0040387A: 6B F0 28           imul        esi,eax,28h
  0040387D: 03 F2              add         esi,edx
  0040387F: 3B D6              cmp         edx,esi
  00403881: 74 19              je          0040389C
  00403883: 8B 4D 0C           mov         ecx,dword ptr [ebp+0Ch]
  00403886: 3B 4A 0C           cmp         ecx,dword ptr [edx+0Ch]
  00403889: 72 0A              jb          00403895
  0040388B: 8B 42 08           mov         eax,dword ptr [edx+8]
  0040388E: 03 42 0C           add         eax,dword ptr [edx+0Ch]
  00403891: 3B C8              cmp         ecx,eax
  00403893: 72 0C              jb          004038A1
  00403895: 83 C2 28           add         edx,28h
  00403898: 3B D6              cmp         edx,esi
  0040389A: 75 EA              jne         00403886
  0040389C: 33 C0              xor         eax,eax
  0040389E: 5E                 pop         esi
  0040389F: 5D                 pop         ebp
  004038A0: C3                 ret
  004038A1: 8B C2              mov         eax,edx
  004038A3: EB F9              jmp         0040389E
___scrt_acquire_startup_lock:
  004038A5: 56                 push        esi
  004038A6: E8 BE 07 00 00     call        ___scrt_is_ucrt_dll_in_use
  004038AB: 85 C0              test        eax,eax
  004038AD: 74 20              je          004038CF
  004038AF: 64 A1 18 00 00 00  mov         eax,dword ptr fs:[00000018h]
  004038B5: BE 40 64 40 00     mov         esi,offset ___scrt_native_startup_lock
  004038BA: 8B 50 04           mov         edx,dword ptr [eax+4]
  004038BD: EB 04              jmp         004038C3
  004038BF: 3B D0              cmp         edx,eax
  004038C1: 74 10              je          004038D3
  004038C3: 33 C0              xor         eax,eax
  004038C5: 8B CA              mov         ecx,edx
  004038C7: F0 0F B1 0E        lock cmpxchg dword ptr [esi],ecx
  004038CB: 85 C0              test        eax,eax
  004038CD: 75 F0              jne         004038BF
  004038CF: 32 C0              xor         al,al
  004038D1: 5E                 pop         esi
  004038D2: C3                 ret
  004038D3: B0 01              mov         al,1
  004038D5: 5E                 pop         esi
  004038D6: C3                 ret
___scrt_initialize_crt:
  004038D7: 55                 push        ebp
  004038D8: 8B EC              mov         ebp,esp
  004038DA: 83 7D 08 00        cmp         dword ptr [ebp+8],0
  004038DE: 75 07              jne         004038E7
  004038E0: C6 05 44 64 40 00  mov         byte ptr ds:[406444h],1
            01
  004038E7: E8 E6 05 00 00     call        ___isa_available_init
  004038EC: E8 1A 08 00 00     call        ___acrt_initialize
  004038F1: 84 C0              test        al,al
  004038F3: 75 04              jne         004038F9
  004038F5: 32 C0              xor         al,al
  004038F7: 5D                 pop         ebp
  004038F8: C3                 ret
  004038F9: E8 0D 08 00 00     call        ___acrt_initialize
  004038FE: 84 C0              test        al,al
  00403900: 75 0A              jne         0040390C
  00403902: 6A 00              push        0
  00403904: E8 05 08 00 00     call        ___acrt_uninitialize
  00403909: 59                 pop         ecx
  0040390A: EB E9              jmp         004038F5
  0040390C: B0 01              mov         al,1
  0040390E: 5D                 pop         ebp
  0040390F: C3                 ret
___scrt_initialize_onexit_tables:
  00403910: 55                 push        ebp
  00403911: 8B EC              mov         ebp,esp
  00403913: 83 EC 0C           sub         esp,0Ch
  00403916: 80 3D 45 64 40 00  cmp         byte ptr ds:[406445h],0
            00
  0040391D: 74 04              je          00403923
  0040391F: B0 01              mov         al,1
  00403921: C9                 leave
  00403922: C3                 ret
  00403923: 56                 push        esi
  00403924: 8B 75 08           mov         esi,dword ptr [ebp+8]
  00403927: 85 F6              test        esi,esi
  00403929: 74 05              je          00403930
  0040392B: 83 FE 01           cmp         esi,1
  0040392E: 75 7D              jne         004039AD
  00403930: E8 34 07 00 00     call        ___scrt_is_ucrt_dll_in_use
  00403935: 85 C0              test        eax,eax
  00403937: 74 26              je          0040395F
  00403939: 85 F6              test        esi,esi
  0040393B: 75 22              jne         0040395F
  0040393D: 68 48 64 40 00     push        406448h
  00403942: E8 A0 07 00 00     call        __initialize_onexit_table
  00403947: 59                 pop         ecx
  00403948: 85 C0              test        eax,eax
  0040394A: 75 0F              jne         0040395B
  0040394C: 68 54 64 40 00     push        406454h
  00403951: E8 91 07 00 00     call        __initialize_onexit_table
  00403956: 59                 pop         ecx
  00403957: 85 C0              test        eax,eax
  00403959: 74 46              je          004039A1
  0040395B: 32 C0              xor         al,al
  0040395D: EB 4B              jmp         004039AA
  0040395F: A1 04 60 40 00     mov         eax,dword ptr [___security_cookie]
  00403964: 8D 75 F4           lea         esi,[ebp-0Ch]
  00403967: 57                 push        edi
  00403968: 83 E0 1F           and         eax,1Fh
  0040396B: BF 48 64 40 00     mov         edi,406448h
  00403970: 6A 20              push        20h
  00403972: 59                 pop         ecx
  00403973: 2B C8              sub         ecx,eax
  00403975: 83 C8 FF           or          eax,0FFFFFFFFh
  00403978: D3 C8              ror         eax,cl
  0040397A: 33 05 04 60 40 00  xor         eax,dword ptr [___security_cookie]
  00403980: 89 45 F4           mov         dword ptr [ebp-0Ch],eax
  00403983: 89 45 F8           mov         dword ptr [ebp-8],eax
  00403986: 89 45 FC           mov         dword ptr [ebp-4],eax
  00403989: A5                 movs        dword ptr es:[edi],dword ptr [esi]
  0040398A: A5                 movs        dword ptr es:[edi],dword ptr [esi]
  0040398B: A5                 movs        dword ptr es:[edi],dword ptr [esi]
  0040398C: BF 54 64 40 00     mov         edi,406454h
  00403991: 89 45 F4           mov         dword ptr [ebp-0Ch],eax
  00403994: 89 45 F8           mov         dword ptr [ebp-8],eax
  00403997: 8D 75 F4           lea         esi,[ebp-0Ch]
  0040399A: 89 45 FC           mov         dword ptr [ebp-4],eax
  0040399D: A5                 movs        dword ptr es:[edi],dword ptr [esi]
  0040399E: A5                 movs        dword ptr es:[edi],dword ptr [esi]
  0040399F: A5                 movs        dword ptr es:[edi],dword ptr [esi]
  004039A0: 5F                 pop         edi
  004039A1: C6 05 45 64 40 00  mov         byte ptr ds:[406445h],1
            01
  004039A8: B0 01              mov         al,1
  004039AA: 5E                 pop         esi
  004039AB: C9                 leave
  004039AC: C3                 ret
  004039AD: 6A 05              push        5
  004039AF: E8 4B 02 00 00     call        ___scrt_fastfail
  004039B4: CC                 int         3
___scrt_is_nonwritable_in_current_image:
  004039B5: 6A 08              push        8
  004039B7: 68 58 56 40 00     push        405658h
  004039BC: E8 8F 04 00 00     call        __SEH_prolog4
  004039C1: 83 65 FC 00        and         dword ptr [ebp-4],0
  004039C5: B8 4D 5A 00 00     mov         eax,5A4Dh
  004039CA: 66 39 05 00 00 40  cmp         word ptr ds:[400000h],ax
            00
  004039D1: 75 5D              jne         00403A30
  004039D3: A1 3C 00 40 00     mov         eax,dword ptr ds:[0040003Ch]
  004039D8: 81 B8 00 00 40 00  cmp         dword ptr [eax+400000h],4550h
            50 45 00 00
  004039E2: 75 4C              jne         00403A30
  004039E4: B9 0B 01 00 00     mov         ecx,10Bh
  004039E9: 66 39 88 18 00 40  cmp         word ptr [eax+400018h],cx
            00
  004039F0: 75 3E              jne         00403A30
  004039F2: 8B 45 08           mov         eax,dword ptr [ebp+8]
  004039F5: B9 00 00 40 00     mov         ecx,400000h
  004039FA: 2B C1              sub         eax,ecx
  004039FC: 50                 push        eax
  004039FD: 51                 push        ecx
  004039FE: E8 5E FE FF FF     call        00403861
  00403A03: 59                 pop         ecx
  00403A04: 59                 pop         ecx
  00403A05: 85 C0              test        eax,eax
  00403A07: 74 27              je          00403A30
  00403A09: 83 78 24 00        cmp         dword ptr [eax+24h],0
  00403A0D: 7C 21              jl          00403A30
  00403A0F: C7 45 FC FE FF FF  mov         dword ptr [ebp-4],0FFFFFFFEh
            FF
  00403A16: B0 01              mov         al,1
  00403A18: EB 1F              jmp         00403A39
  00403A1A: 8B 45 EC           mov         eax,dword ptr [ebp-14h]
  00403A1D: 8B 00              mov         eax,dword ptr [eax]
  00403A1F: 33 C9              xor         ecx,ecx
  00403A21: 81 38 05 00 00 C0  cmp         dword ptr [eax],0C0000005h
  00403A27: 0F 94 C1           sete        cl
  00403A2A: 8B C1              mov         eax,ecx
  00403A2C: C3                 ret
  00403A2D: 8B 65 E8           mov         esp,dword ptr [ebp-18h]
  00403A30: C7 45 FC FE FF FF  mov         dword ptr [ebp-4],0FFFFFFFEh
            FF
  00403A37: 32 C0              xor         al,al
  00403A39: 8B 4D F0           mov         ecx,dword ptr [ebp-10h]
  00403A3C: 64 89 0D 00 00 00  mov         dword ptr fs:[0],ecx
            00
  00403A43: 59                 pop         ecx
  00403A44: 5F                 pop         edi
  00403A45: 5E                 pop         esi
  00403A46: 5B                 pop         ebx
  00403A47: C9                 leave
  00403A48: C3                 ret
___scrt_release_startup_lock:
  00403A49: 55                 push        ebp
  00403A4A: 8B EC              mov         ebp,esp
  00403A4C: E8 18 06 00 00     call        ___scrt_is_ucrt_dll_in_use
  00403A51: 85 C0              test        eax,eax
  00403A53: 74 0F              je          00403A64
  00403A55: 80 7D 08 00        cmp         byte ptr [ebp+8],0
  00403A59: 75 09              jne         00403A64
  00403A5B: 33 C0              xor         eax,eax
  00403A5D: B9 40 64 40 00     mov         ecx,offset ___scrt_native_startup_lock
  00403A62: 87 01              xchg        eax,dword ptr [ecx]
  00403A64: 5D                 pop         ebp
  00403A65: C3                 ret
___scrt_uninitialize_crt:
  00403A66: 55                 push        ebp
  00403A67: 8B EC              mov         ebp,esp
  00403A69: 80 3D 44 64 40 00  cmp         byte ptr ds:[406444h],0
            00
  00403A70: 74 06              je          00403A78
  00403A72: 80 7D 0C 00        cmp         byte ptr [ebp+0Ch],0
  00403A76: 75 12              jne         00403A8A
  00403A78: FF 75 08           push        dword ptr [ebp+8]
  00403A7B: E8 8E 06 00 00     call        ___acrt_uninitialize
  00403A80: FF 75 08           push        dword ptr [ebp+8]
  00403A83: E8 86 06 00 00     call        ___acrt_uninitialize
  00403A88: 59                 pop         ecx
  00403A89: 59                 pop         ecx
  00403A8A: B0 01              mov         al,1
  00403A8C: 5D                 pop         ebp
  00403A8D: C3                 ret
__onexit:
  00403A8E: 55                 push        ebp
  00403A8F: 8B EC              mov         ebp,esp
  00403A91: A1 04 60 40 00     mov         eax,dword ptr [___security_cookie]
  00403A96: 8B C8              mov         ecx,eax
  00403A98: 33 05 48 64 40 00  xor         eax,dword ptr ds:[406448h]
  00403A9E: 83 E1 1F           and         ecx,1Fh
  00403AA1: FF 75 08           push        dword ptr [ebp+8]
  00403AA4: D3 C8              ror         eax,cl
  00403AA6: 83 F8 FF           cmp         eax,0FFFFFFFFh
  00403AA9: 75 07              jne         00403AB2
  00403AAB: E8 43 06 00 00     call        __crt_atexit
  00403AB0: EB 0B              jmp         00403ABD
  00403AB2: 68 48 64 40 00     push        406448h
  00403AB7: E8 31 06 00 00     call        __register_onexit_function
  00403ABC: 59                 pop         ecx
  00403ABD: F7 D8              neg         eax
  00403ABF: 59                 pop         ecx
  00403AC0: 1B C0              sbb         eax,eax
  00403AC2: F7 D0              not         eax
  00403AC4: 23 45 08           and         eax,dword ptr [ebp+8]
  00403AC7: 5D                 pop         ebp
  00403AC8: C3                 ret
_atexit:
  00403AC9: 55                 push        ebp
  00403ACA: 8B EC              mov         ebp,esp
  00403ACC: FF 75 08           push        dword ptr [ebp+8]
  00403ACF: E8 BA FF FF FF     call        __onexit
  00403AD4: F7 D8              neg         eax
  00403AD6: 59                 pop         ecx
  00403AD7: 1B C0              sbb         eax,eax
  00403AD9: F7 D8              neg         eax
  00403ADB: 48                 dec         eax
  00403ADC: 5D                 pop         ebp
  00403ADD: C3                 ret
__get_entropy:
  00403ADE: 55                 push        ebp
  00403ADF: 8B EC              mov         ebp,esp
  00403AE1: 83 EC 14           sub         esp,14h
  00403AE4: 83 65 F4 00        and         dword ptr [ebp-0Ch],0
  00403AE8: 8D 45 F4           lea         eax,[ebp-0Ch]
  00403AEB: 83 65 F8 00        and         dword ptr [ebp-8],0
  00403AEF: 50                 push        eax
  00403AF0: FF 15 30 50 40 00  call        dword ptr [__imp__GetSystemTimeAsFileTime@4]
  00403AF6: 8B 45 F8           mov         eax,dword ptr [ebp-8]
  00403AF9: 33 45 F4           xor         eax,dword ptr [ebp-0Ch]
  00403AFC: 89 45 FC           mov         dword ptr [ebp-4],eax
  00403AFF: FF 15 40 50 40 00  call        dword ptr [__imp__GetCurrentThreadId@0]
  00403B05: 31 45 FC           xor         dword ptr [ebp-4],eax
  00403B08: FF 15 48 50 40 00  call        dword ptr [__imp__GetCurrentProcessId@0]
  00403B0E: 31 45 FC           xor         dword ptr [ebp-4],eax
  00403B11: 8D 45 EC           lea         eax,[ebp-14h]
  00403B14: 50                 push        eax
  00403B15: FF 15 4C 50 40 00  call        dword ptr [__imp__QueryPerformanceCounter@4]
  00403B1B: 8B 45 F0           mov         eax,dword ptr [ebp-10h]
  00403B1E: 8D 4D FC           lea         ecx,[ebp-4]
  00403B21: 33 45 EC           xor         eax,dword ptr [ebp-14h]
  00403B24: 33 45 FC           xor         eax,dword ptr [ebp-4]
  00403B27: 33 C1              xor         eax,ecx
  00403B29: C9                 leave
  00403B2A: C3                 ret
___security_init_cookie:
  00403B2B: 8B 0D 04 60 40 00  mov         ecx,dword ptr [___security_cookie]
  00403B31: 56                 push        esi
  00403B32: 57                 push        edi
  00403B33: BF 4E E6 40 BB     mov         edi,0BB40E64Eh
  00403B38: BE 00 00 FF FF     mov         esi,0FFFF0000h
  00403B3D: 3B CF              cmp         ecx,edi
  00403B3F: 74 04              je          00403B45
  00403B41: 85 CE              test        esi,ecx
  00403B43: 75 26              jne         00403B6B
  00403B45: E8 94 FF FF FF     call        00403ADE
  00403B4A: 8B C8              mov         ecx,eax
  00403B4C: 3B CF              cmp         ecx,edi
  00403B4E: 75 07              jne         00403B57
  00403B50: B9 4F E6 40 BB     mov         ecx,0BB40E64Fh
  00403B55: EB 0E              jmp         00403B65
  00403B57: 85 CE              test        esi,ecx
  00403B59: 75 0A              jne         00403B65
  00403B5B: 0D 11 47 00 00     or          eax,4711h
  00403B60: C1 E0 10           shl         eax,10h
  00403B63: 0B C8              or          ecx,eax
  00403B65: 89 0D 04 60 40 00  mov         dword ptr [___security_cookie],ecx
  00403B6B: F7 D1              not         ecx
  00403B6D: 5F                 pop         edi
  00403B6E: 89 0D 00 60 40 00  mov         dword ptr [___security_cookie_complement],ecx
  00403B74: 5E                 pop         esi
  00403B75: C3                 ret
__matherr:
  00403B76: 33 C0              xor         eax,eax
  00403B78: C3                 ret
__get_startup_argv_mode:
  00403B79: 33 C0              xor         eax,eax
  00403B7B: 40                 inc         eax
  00403B7C: C3                 ret
__get_startup_commit_mode:
  00403B7D: 33 C0              xor         eax,eax
  00403B7F: C3                 ret
__get_startup_file_mode:
  00403B80: B8 00 40 00 00     mov         eax,4000h
  00403B85: C3                 ret
__get_startup_new_mode:
  00403B86: 33 C0              xor         eax,eax
  00403B88: C3                 ret
__get_startup_thread_locale_mode:
  00403B89: 33 C0              xor         eax,eax
  00403B8B: C3                 ret
?__scrt_initialize_type_info@@YAXXZ:
  00403B8C: 68 60 64 40 00     push        offset ?__type_info_root_node@@3U__type_info_node@@A
  00403B91: FF 15 3C 50 40 00  call        dword ptr [__imp__InitializeSListHead@4]
  00403B97: C3                 ret
__should_initialize_environment:
  00403B98: B0 01              mov         al,1
  00403B9A: C3                 ret
__initialize_default_precision:
  00403B9B: 68 00 00 03 00     push        30000h
  00403BA0: 68 00 00 01 00     push        10000h
  00403BA5: 6A 00              push        0
  00403BA7: E8 4D 05 00 00     call        __controlfp_s
  00403BAC: 83 C4 0C           add         esp,0Ch
  00403BAF: 85 C0              test        eax,eax
  00403BB1: 75 01              jne         00403BB4
  00403BB3: C3                 ret
  00403BB4: 6A 07              push        7
  00403BB6: E8 44 00 00 00     call        ___scrt_fastfail
  00403BBB: CC                 int         3
__initialize_invalid_parameter_handler:
  00403BBC: C3                 ret
__initialize_denormal_control:
  00403BBD: C3                 ret
___local_stdio_printf_options:
  00403BBE: B8 68 64 40 00     mov         eax,offset ?_OptionsStorage@?1??__local_stdio_printf_options@@9@4_KA
  00403BC3: C3                 ret
___local_stdio_scanf_options:
  00403BC4: B8 70 64 40 00     mov         eax,offset ?_OptionsStorage@?1??__local_stdio_scanf_options@@9@4_KA
  00403BC9: C3                 ret
___scrt_initialize_default_local_stdio_options:
  00403BCA: E8 EF FF FF FF     call        ___local_stdio_printf_options
  00403BCF: 8B 48 04           mov         ecx,dword ptr [eax+4]
  00403BD2: 83 08 04           or          dword ptr [eax],4
  00403BD5: 89 48 04           mov         dword ptr [eax+4],ecx
  00403BD8: E8 E7 FF FF FF     call        ___local_stdio_scanf_options
  00403BDD: 8B 48 04           mov         ecx,dword ptr [eax+4]
  00403BE0: 83 08 02           or          dword ptr [eax],2
  00403BE3: 89 48 04           mov         dword ptr [eax+4],ecx
  00403BE6: C3                 ret
___scrt_is_user_matherr_present:
  00403BE7: 33 C0              xor         eax,eax
  00403BE9: 39 05 0C 60 40 00  cmp         dword ptr [___scrt_default_matherr],eax
  00403BEF: 0F 94 C0           sete        al
  00403BF2: C3                 ret
___scrt_get_dyn_tls_init_callback:
  00403BF3: B8 88 64 40 00     mov         eax,offset ___dyn_tls_init_callback
  00403BF8: C3                 ret
___scrt_get_dyn_tls_dtor_callback:
  00403BF9: B8 84 64 40 00     mov         eax,offset ___dyn_tls_dtor_callback
  00403BFE: C3                 ret
___scrt_fastfail:
  00403BFF: 55                 push        ebp
  00403C00: 8B EC              mov         ebp,esp
  00403C02: 81 EC 24 03 00 00  sub         esp,324h
  00403C08: 53                 push        ebx
  00403C09: 6A 17              push        17h
  00403C0B: E8 F5 04 00 00     call        _IsProcessorFeaturePresent@4
  00403C10: 85 C0              test        eax,eax
  00403C12: 74 05              je          00403C19
  00403C14: 8B 4D 08           mov         ecx,dword ptr [ebp+8]
  00403C17: CD 29              int         29h
  00403C19: 6A 03              push        3
  00403C1B: E8 C5 01 00 00     call        __crt_debugger_hook
  00403C20: C7 04 24 CC 02 00  mov         dword ptr [esp],2CCh
            00
  00403C27: 8D 85 DC FC FF FF  lea         eax,[ebp-324h]
  00403C2D: 6A 00              push        0
  00403C2F: 50                 push        eax
  00403C30: E8 40 04 00 00     call        _memset
  00403C35: 83 C4 0C           add         esp,0Ch
  00403C38: 89 85 8C FD FF FF  mov         dword ptr [ebp-274h],eax
  00403C3E: 89 8D 88 FD FF FF  mov         dword ptr [ebp-278h],ecx
  00403C44: 89 95 84 FD FF FF  mov         dword ptr [ebp-27Ch],edx
  00403C4A: 89 9D 80 FD FF FF  mov         dword ptr [ebp-280h],ebx
  00403C50: 89 B5 7C FD FF FF  mov         dword ptr [ebp-284h],esi
  00403C56: 89 BD 78 FD FF FF  mov         dword ptr [ebp-288h],edi
  00403C5C: 66 8C 95 A4 FD FF  mov         word ptr [ebp-25Ch],ss
            FF
  00403C63: 66 8C 8D 98 FD FF  mov         word ptr [ebp-268h],cs
            FF
  00403C6A: 66 8C 9D 74 FD FF  mov         word ptr [ebp-28Ch],ds
            FF
  00403C71: 66 8C 85 70 FD FF  mov         word ptr [ebp-290h],es
            FF
  00403C78: 66 8C A5 6C FD FF  mov         word ptr [ebp-294h],fs
            FF
  00403C7F: 66 8C AD 68 FD FF  mov         word ptr [ebp-298h],gs
            FF
  00403C86: 9C                 pushfd
  00403C87: 8F 85 9C FD FF FF  pop         dword ptr [ebp-264h]
  00403C8D: 8B 45 04           mov         eax,dword ptr [ebp+4]
  00403C90: 89 85 94 FD FF FF  mov         dword ptr [ebp-26Ch],eax
  00403C96: 8D 45 04           lea         eax,[ebp+4]
  00403C99: 89 85 A0 FD FF FF  mov         dword ptr [ebp-260h],eax
  00403C9F: C7 85 DC FC FF FF  mov         dword ptr [ebp-324h],10001h
            01 00 01 00
  00403CA9: 8B 40 FC           mov         eax,dword ptr [eax-4]
  00403CAC: 6A 50              push        50h
  00403CAE: 89 85 90 FD FF FF  mov         dword ptr [ebp-270h],eax
  00403CB4: 8D 45 A8           lea         eax,[ebp-58h]
  00403CB7: 6A 00              push        0
  00403CB9: 50                 push        eax
  00403CBA: E8 B6 03 00 00     call        _memset
  00403CBF: 8B 45 04           mov         eax,dword ptr [ebp+4]
  00403CC2: 83 C4 0C           add         esp,0Ch
  00403CC5: C7 45 A8 15 00 00  mov         dword ptr [ebp-58h],40000015h
            40
  00403CCC: C7 45 AC 01 00 00  mov         dword ptr [ebp-54h],1
            00
  00403CD3: 89 45 B4           mov         dword ptr [ebp-4Ch],eax
  00403CD6: FF 15 38 50 40 00  call        dword ptr [__imp__IsDebuggerPresent@0]
  00403CDC: 6A 00              push        0
  00403CDE: 8D 58 FF           lea         ebx,[eax-1]
  00403CE1: F7 DB              neg         ebx
  00403CE3: 8D 45 A8           lea         eax,[ebp-58h]
  00403CE6: 89 45 F8           mov         dword ptr [ebp-8],eax
  00403CE9: 8D 85 DC FC FF FF  lea         eax,[ebp-324h]
  00403CEF: 1A DB              sbb         bl,bl
  00403CF1: 89 45 FC           mov         dword ptr [ebp-4],eax
  00403CF4: FE C3              inc         bl
  00403CF6: FF 15 5C 50 40 00  call        dword ptr [__imp__SetUnhandledExceptionFilter@4]
  00403CFC: 8D 45 F8           lea         eax,[ebp-8]
  00403CFF: 50                 push        eax
  00403D00: FF 15 60 50 40 00  call        dword ptr [__imp__UnhandledExceptionFilter@4]
  00403D06: 85 C0              test        eax,eax
  00403D08: 75 0C              jne         00403D16
  00403D0A: 84 DB              test        bl,bl
  00403D0C: 75 08              jne         00403D16
  00403D0E: 6A 03              push        3
  00403D10: E8 D0 00 00 00     call        __crt_debugger_hook
  00403D15: 59                 pop         ecx
  00403D16: 5B                 pop         ebx
  00403D17: C9                 leave
  00403D18: C3                 ret
___scrt_get_show_window_mode:
  00403D19: 55                 push        ebp
  00403D1A: 8B EC              mov         ebp,esp
  00403D1C: 83 EC 44           sub         esp,44h
  00403D1F: 6A 44              push        44h
  00403D21: 8D 45 BC           lea         eax,[ebp-44h]
  00403D24: 6A 00              push        0
  00403D26: 50                 push        eax
  00403D27: E8 49 03 00 00     call        _memset
  00403D2C: 83 C4 0C           add         esp,0Ch
  00403D2F: 8D 45 BC           lea         eax,[ebp-44h]
  00403D32: 50                 push        eax
  00403D33: FF 15 68 50 40 00  call        dword ptr [__imp__GetStartupInfoW@4]
  00403D39: F6 45 E8 01        test        byte ptr [ebp-18h],1
  00403D3D: 74 06              je          00403D45
  00403D3F: 0F B7 45 EC        movzx       eax,word ptr [ebp-14h]
  00403D43: C9                 leave
  00403D44: C3                 ret
  00403D45: 6A 0A              push        0Ah
  00403D47: 58                 pop         eax
  00403D48: C9                 leave
  00403D49: C3                 ret
___scrt_initialize_mta:
  00403D4A: E9 52 00 00 00     jmp         ___scrt_exe_initialize_mta
___scrt_initialize_winrt:
  00403D4F: 33 C0              xor         eax,eax
  00403D51: C3                 ret
___scrt_is_managed_app:
  00403D52: 6A 00              push        0
  00403D54: FF 15 34 50 40 00  call        dword ptr [__imp__GetModuleHandleW@4]
  00403D5A: 85 C0              test        eax,eax
  00403D5C: 74 34              je          00403D92
  00403D5E: B9 4D 5A 00 00     mov         ecx,5A4Dh
  00403D63: 66 39 08           cmp         word ptr [eax],cx
  00403D66: 75 2A              jne         00403D92
  00403D68: 8B 48 3C           mov         ecx,dword ptr [eax+3Ch]
  00403D6B: 03 C8              add         ecx,eax
  00403D6D: 81 39 50 45 00 00  cmp         dword ptr [ecx],4550h
  00403D73: 75 1D              jne         00403D92
  00403D75: B8 0B 01 00 00     mov         eax,10Bh
  00403D7A: 66 39 41 18        cmp         word ptr [ecx+18h],ax
  00403D7E: 75 12              jne         00403D92
  00403D80: 83 79 74 0E        cmp         dword ptr [ecx+74h],0Eh
  00403D84: 76 0C              jbe         00403D92
  00403D86: 83 B9 E8 00 00 00  cmp         dword ptr [ecx+0E8h],0
            00
  00403D8D: 74 03              je          00403D92
  00403D8F: B0 01              mov         al,1
  00403D91: C3                 ret
  00403D92: 32 C0              xor         al,al
  00403D94: C3                 ret
___scrt_set_unhandled_exception_filter:
  00403D95: 68 A4 3D 40 00     push        offset ___scrt_unhandled_exception_filter@4
  00403D9A: FF 15 5C 50 40 00  call        dword ptr [__imp__SetUnhandledExceptionFilter@4]
  00403DA0: C3                 ret
___scrt_exe_initialize_mta:
  00403DA1: 33 C0              xor         eax,eax
  00403DA3: C3                 ret
___scrt_unhandled_exception_filter@4:
  00403DA4: 55                 push        ebp
  00403DA5: 8B EC              mov         ebp,esp
  00403DA7: 8B 45 08           mov         eax,dword ptr [ebp+8]
  00403DAA: 8B 00              mov         eax,dword ptr [eax]
  00403DAC: 81 38 63 73 6D E0  cmp         dword ptr [eax],0E06D7363h
  00403DB2: 75 25              jne         00403DD9
  00403DB4: 83 78 10 03        cmp         dword ptr [eax+10h],3
  00403DB8: 75 1F              jne         00403DD9
  00403DBA: 8B 40 14           mov         eax,dword ptr [eax+14h]
  00403DBD: 3D 20 05 93 19     cmp         eax,19930520h
  00403DC2: 74 1B              je          00403DDF
  00403DC4: 3D 21 05 93 19     cmp         eax,19930521h
  00403DC9: 74 14              je          00403DDF
  00403DCB: 3D 22 05 93 19     cmp         eax,19930522h
  00403DD0: 74 0D              je          00403DDF
  00403DD2: 3D 00 40 99 01     cmp         eax,1994000h
  00403DD7: 74 06              je          00403DDF
  00403DD9: 33 C0              xor         eax,eax
  00403DDB: 5D                 pop         ebp
  00403DDC: C2 04 00           ret         4
  00403DDF: E8 1B 03 00 00     call        _terminate
  00403DE4: CC                 int         3
__crt_debugger_hook:
  00403DE5: 83 25 78 64 40 00  and         dword ptr [___scrt_debugger_hook_flag],0
            00
  00403DEC: C3                 ret
__RTC_Initialize:
  00403DED: 53                 push        ebx
  00403DEE: 56                 push        esi
  00403DEF: BE 2C 56 40 00     mov         esi,offset ___rtc_izz
  00403DF4: BB 2C 56 40 00     mov         ebx,offset ___rtc_izz
  00403DF9: 3B F3              cmp         esi,ebx
  00403DFB: 73 19              jae         00403E16
  00403DFD: 57                 push        edi
  00403DFE: 8B 3E              mov         edi,dword ptr [esi]
  00403E00: 85 FF              test        edi,edi
  00403E02: 74 0A              je          00403E0E
  00403E04: 8B CF              mov         ecx,edi
  00403E06: FF 15 50 51 40 00  call        dword ptr [___guard_check_icall_fptr]
  00403E0C: FF D7              call        edi
  00403E0E: 83 C6 04           add         esi,4
  00403E11: 3B F3              cmp         esi,ebx
  00403E13: 72 E9              jb          00403DFE
  00403E15: 5F                 pop         edi
  00403E16: 5E                 pop         esi
  00403E17: 5B                 pop         ebx
  00403E18: C3                 ret
__RTC_Terminate:
  00403E19: 53                 push        ebx
  00403E1A: 56                 push        esi
  00403E1B: BE 34 56 40 00     mov         esi,offset ___rtc_tzz
  00403E20: BB 34 56 40 00     mov         ebx,offset ___rtc_tzz
  00403E25: 3B F3              cmp         esi,ebx
  00403E27: 73 19              jae         00403E42
  00403E29: 57                 push        edi
  00403E2A: 8B 3E              mov         edi,dword ptr [esi]
  00403E2C: 85 FF              test        edi,edi
  00403E2E: 74 0A              je          00403E3A
  00403E30: 8B CF              mov         ecx,edi
  00403E32: FF 15 50 51 40 00  call        dword ptr [___guard_check_icall_fptr]
  00403E38: FF D7              call        edi
  00403E3A: 83 C6 04           add         esi,4
  00403E3D: 3B F3              cmp         esi,ebx
  00403E3F: 72 E9              jb          00403E2A
  00403E41: 5F                 pop         edi
  00403E42: 5E                 pop         esi
  00403E43: 5B                 pop         ebx
  00403E44: C3                 ret
  00403E45: CC CC CC CC CC CC CC CC CC CC CC                 ...........
__SEH_prolog4:
  00403E50: 68 AB 3E 40 00     push        offset __except_handler4
  00403E55: 64 FF 35 00 00 00  push        dword ptr fs:[0]
            00
  00403E5C: 8B 44 24 10        mov         eax,dword ptr [esp+10h]
  00403E60: 89 6C 24 10        mov         dword ptr [esp+10h],ebp
  00403E64: 8D 6C 24 10        lea         ebp,[esp+10h]
  00403E68: 2B E0              sub         esp,eax
  00403E6A: 53                 push        ebx
  00403E6B: 56                 push        esi
  00403E6C: 57                 push        edi
  00403E6D: A1 04 60 40 00     mov         eax,dword ptr [___security_cookie]
  00403E72: 31 45 FC           xor         dword ptr [ebp-4],eax
  00403E75: 33 C5              xor         eax,ebp
  00403E77: 50                 push        eax
  00403E78: 89 65 E8           mov         dword ptr [ebp-18h],esp
  00403E7B: FF 75 F8           push        dword ptr [ebp-8]
  00403E7E: 8B 45 FC           mov         eax,dword ptr [ebp-4]
  00403E81: C7 45 FC FE FF FF  mov         dword ptr [ebp-4],0FFFFFFFEh
            FF
  00403E88: 89 45 F8           mov         dword ptr [ebp-8],eax
  00403E8B: 8D 45 F0           lea         eax,[ebp-10h]
  00403E8E: 64 A3 00 00 00 00  mov         dword ptr fs:[00000000h],eax
  00403E94: F2 C3              bnd ret
__SEH_epilog4:
  00403E96: 8B 4D F0           mov         ecx,dword ptr [ebp-10h]
  00403E99: 64 89 0D 00 00 00  mov         dword ptr fs:[0],ecx
            00
  00403EA0: 59                 pop         ecx
  00403EA1: 5F                 pop         edi
  00403EA2: 5F                 pop         edi
  00403EA3: 5E                 pop         esi
  00403EA4: 5B                 pop         ebx
  00403EA5: 8B E5              mov         esp,ebp
  00403EA7: 5D                 pop         ebp
  00403EA8: 51                 push        ecx
  00403EA9: F2 C3              bnd ret
__except_handler4:
  00403EAB: 55                 push        ebp
  00403EAC: 8B EC              mov         ebp,esp
  00403EAE: FF 75 14           push        dword ptr [ebp+14h]
  00403EB1: FF 75 10           push        dword ptr [ebp+10h]
  00403EB4: FF 75 0C           push        dword ptr [ebp+0Ch]
  00403EB7: FF 75 08           push        dword ptr [ebp+8]
  00403EBA: 68 E4 34 40 00     push        offset @__security_check_cookie@4
  00403EBF: 68 04 60 40 00     push        offset ___security_cookie
  00403EC4: E8 B2 01 00 00     call        __except_handler4_common
  00403EC9: 83 C4 18           add         esp,18h
  00403ECC: 5D                 pop         ebp
  00403ECD: C3                 ret
@_guard_check_icall_nop@4:
  00403ECE: C3                 ret
  00403ECF: CC CC CC                                         ...
___isa_available_init:
  00403ED2: 55                 push        ebp
  00403ED3: 8B EC              mov         ebp,esp
  00403ED5: 83 25 7C 64 40 00  and         dword ptr [___isa_available],0
            00
  00403EDC: 83 EC 24           sub         esp,24h
  00403EDF: 53                 push        ebx
  00403EE0: 33 DB              xor         ebx,ebx
  00403EE2: 43                 inc         ebx
  00403EE3: 09 1D 10 60 40 00  or          dword ptr [___isa_enabled],ebx
  00403EE9: 6A 0A              push        0Ah
  00403EEB: E8 15 02 00 00     call        _IsProcessorFeaturePresent@4
  00403EF0: 85 C0              test        eax,eax
  00403EF2: 0F 84 6C 01 00 00  je          00404064
  00403EF8: 83 65 F0 00        and         dword ptr [ebp-10h],0
  00403EFC: 33 C0              xor         eax,eax
  00403EFE: 83 0D 10 60 40 00  or          dword ptr [___isa_enabled],2
            02
  00403F05: 33 C9              xor         ecx,ecx
  00403F07: 56                 push        esi
  00403F08: 57                 push        edi
  00403F09: 89 1D 7C 64 40 00  mov         dword ptr [___isa_available],ebx
  00403F0F: 8D 7D DC           lea         edi,[ebp-24h]
  00403F12: 53                 push        ebx
  00403F13: 0F A2              cpuid
  00403F15: 8B F3              mov         esi,ebx
  00403F17: 5B                 pop         ebx
  00403F18: 89 07              mov         dword ptr [edi],eax
  00403F1A: 89 77 04           mov         dword ptr [edi+4],esi
  00403F1D: 89 4F 08           mov         dword ptr [edi+8],ecx
  00403F20: 33 C9              xor         ecx,ecx
  00403F22: 89 57 0C           mov         dword ptr [edi+0Ch],edx
  00403F25: 8B 45 DC           mov         eax,dword ptr [ebp-24h]
  00403F28: 8B 7D E0           mov         edi,dword ptr [ebp-20h]
  00403F2B: 89 45 F4           mov         dword ptr [ebp-0Ch],eax
  00403F2E: 81 F7 47 65 6E 75  xor         edi,756E6547h
  00403F34: 8B 45 E8           mov         eax,dword ptr [ebp-18h]
  00403F37: 35 69 6E 65 49     xor         eax,49656E69h
  00403F3C: 89 45 F8           mov         dword ptr [ebp-8],eax
  00403F3F: 8B 45 E4           mov         eax,dword ptr [ebp-1Ch]
  00403F42: 35 6E 74 65 6C     xor         eax,6C65746Eh
  00403F47: 89 45 FC           mov         dword ptr [ebp-4],eax
  00403F4A: 33 C0              xor         eax,eax
  00403F4C: 40                 inc         eax
  00403F4D: 53                 push        ebx
  00403F4E: 0F A2              cpuid
  00403F50: 8B F3              mov         esi,ebx
  00403F52: 5B                 pop         ebx
  00403F53: 8D 5D DC           lea         ebx,[ebp-24h]
  00403F56: 89 03              mov         dword ptr [ebx],eax
  00403F58: 8B 45 FC           mov         eax,dword ptr [ebp-4]
  00403F5B: 0B 45 F8           or          eax,dword ptr [ebp-8]
  00403F5E: 0B C7              or          eax,edi
  00403F60: 89 73 04           mov         dword ptr [ebx+4],esi
  00403F63: 89 4B 08           mov         dword ptr [ebx+8],ecx
  00403F66: 89 53 0C           mov         dword ptr [ebx+0Ch],edx
  00403F69: 75 43              jne         00403FAE
  00403F6B: 8B 45 DC           mov         eax,dword ptr [ebp-24h]
  00403F6E: 25 F0 3F FF 0F     and         eax,0FFF3FF0h
  00403F73: 3D C0 06 01 00     cmp         eax,106C0h
  00403F78: 74 23              je          00403F9D
  00403F7A: 3D 60 06 02 00     cmp         eax,20660h
  00403F7F: 74 1C              je          00403F9D
  00403F81: 3D 70 06 02 00     cmp         eax,20670h
  00403F86: 74 15              je          00403F9D
  00403F88: 3D 50 06 03 00     cmp         eax,30650h
  00403F8D: 74 0E              je          00403F9D
  00403F8F: 3D 60 06 03 00     cmp         eax,30660h
  00403F94: 74 07              je          00403F9D
  00403F96: 3D 70 06 03 00     cmp         eax,30670h
  00403F9B: 75 11              jne         00403FAE
  00403F9D: 8B 3D 80 64 40 00  mov         edi,dword ptr [___favor]
  00403FA3: 83 CF 01           or          edi,1
  00403FA6: 89 3D 80 64 40 00  mov         dword ptr [___favor],edi
  00403FAC: EB 06              jmp         00403FB4
  00403FAE: 8B 3D 80 64 40 00  mov         edi,dword ptr [___favor]
  00403FB4: 83 7D F4 07        cmp         dword ptr [ebp-0Ch],7
  00403FB8: 8B 45 E4           mov         eax,dword ptr [ebp-1Ch]
  00403FBB: 89 45 FC           mov         dword ptr [ebp-4],eax
  00403FBE: 7C 32              jl          00403FF2
  00403FC0: 6A 07              push        7
  00403FC2: 58                 pop         eax
  00403FC3: 33 C9              xor         ecx,ecx
  00403FC5: 53                 push        ebx
  00403FC6: 0F A2              cpuid
  00403FC8: 8B F3              mov         esi,ebx
  00403FCA: 5B                 pop         ebx
  00403FCB: 8D 5D DC           lea         ebx,[ebp-24h]
  00403FCE: 89 03              mov         dword ptr [ebx],eax
  00403FD0: 8B 45 FC           mov         eax,dword ptr [ebp-4]
  00403FD3: 89 73 04           mov         dword ptr [ebx+4],esi
  00403FD6: 89 4B 08           mov         dword ptr [ebx+8],ecx
  00403FD9: 89 53 0C           mov         dword ptr [ebx+0Ch],edx
  00403FDC: 8B 5D E0           mov         ebx,dword ptr [ebp-20h]
  00403FDF: F7 C3 00 02 00 00  test        ebx,200h
  00403FE5: 74 0E              je          00403FF5
  00403FE7: 83 CF 02           or          edi,2
  00403FEA: 89 3D 80 64 40 00  mov         dword ptr [___favor],edi
  00403FF0: EB 03              jmp         00403FF5
  00403FF2: 8B 5D F0           mov         ebx,dword ptr [ebp-10h]
  00403FF5: 5F                 pop         edi
  00403FF6: 5E                 pop         esi
  00403FF7: A9 00 00 10 00     test        eax,100000h
  00403FFC: 74 66              je          00404064
  00403FFE: 83 0D 10 60 40 00  or          dword ptr [___isa_enabled],4
            04
  00404005: C7 05 7C 64 40 00  mov         dword ptr [___isa_available],2
            02 00 00 00
  0040400F: A9 00 00 00 08     test        eax,8000000h
  00404014: 74 4E              je          00404064
  00404016: A9 00 00 00 10     test        eax,10000000h
  0040401B: 74 47              je          00404064
  0040401D: 33 C9              xor         ecx,ecx
  0040401F: 0F 01 D0           xgetbv
  00404022: 89 45 EC           mov         dword ptr [ebp-14h],eax
  00404025: 89 55 F0           mov         dword ptr [ebp-10h],edx
  00404028: 8B 45 EC           mov         eax,dword ptr [ebp-14h]
  0040402B: 8B 4D F0           mov         ecx,dword ptr [ebp-10h]
  0040402E: 83 E0 06           and         eax,6
  00404031: 83 F8 06           cmp         eax,6
  00404034: 75 2E              jne         00404064
  00404036: A1 10 60 40 00     mov         eax,dword ptr [___isa_enabled]
  0040403B: 83 C8 08           or          eax,8
  0040403E: C7 05 7C 64 40 00  mov         dword ptr [___isa_available],3
            03 00 00 00
  00404048: A3 10 60 40 00     mov         dword ptr [___isa_enabled],eax
  0040404D: F6 C3 20           test        bl,20h
  00404050: 74 12              je          00404064
  00404052: 83 C8 20           or          eax,20h
  00404055: C7 05 7C 64 40 00  mov         dword ptr [___isa_available],5
            05 00 00 00
  0040405F: A3 10 60 40 00     mov         dword ptr [___isa_enabled],eax
  00404064: 33 C0              xor         eax,eax
  00404066: 5B                 pop         ebx
  00404067: C9                 leave
  00404068: C3                 ret
___scrt_is_ucrt_dll_in_use:
  00404069: 33 C0              xor         eax,eax
  0040406B: 39 05 14 60 40 00  cmp         dword ptr [___scrt_ucrt_dll_is_in_use],eax
  00404071: 0F 95 C0           setne       al
  00404074: C3                 ret
_memset:
  00404075: FF 25 B0 50 40 00  jmp         dword ptr [__imp__memset]
__except_handler4_common:
  0040407B: FF 25 B4 50 40 00  jmp         dword ptr [__imp___except_handler4_common]
__seh_filter_exe:
  00404081: FF 25 F0 50 40 00  jmp         dword ptr [__imp___seh_filter_exe]
__set_app_type:
  00404087: FF 25 FC 50 40 00  jmp         dword ptr [__imp___set_app_type]
___setusermatherr:
  0040408D: FF 25 D8 50 40 00  jmp         dword ptr [__imp____setusermatherr]
__configure_narrow_argv:
  00404093: FF 25 00 51 40 00  jmp         dword ptr [__imp___configure_narrow_argv]
__initialize_narrow_environment:
  00404099: FF 25 08 51 40 00  jmp         dword ptr [__imp___initialize_narrow_environment]
__get_narrow_winmain_command_line:
  0040409F: FF 25 0C 51 40 00  jmp         dword ptr [__imp___get_narrow_winmain_command_line]
__initterm:
  004040A5: FF 25 18 51 40 00  jmp         dword ptr [__imp___initterm]
__initterm_e:
  004040AB: FF 25 24 51 40 00  jmp         dword ptr [__imp___initterm_e]
_exit:
  004040B1: FF 25 20 51 40 00  jmp         dword ptr [__imp__exit]
__exit:
  004040B7: FF 25 1C 51 40 00  jmp         dword ptr [__imp___exit]
__set_fmode:
  004040BD: FF 25 34 51 40 00  jmp         dword ptr [__imp___set_fmode]
__cexit:
  004040C3: FF 25 14 51 40 00  jmp         dword ptr [__imp___cexit]
__c_exit:
  004040C9: FF 25 10 51 40 00  jmp         dword ptr [__imp___c_exit]
__register_thread_local_exe_atexit_callback:
  004040CF: FF 25 28 51 40 00  jmp         dword ptr [__imp___register_thread_local_exe_atexit_callback]
__configthreadlocale:
  004040D5: FF 25 CC 50 40 00  jmp         dword ptr [__imp___configthreadlocale]
__set_new_mode:
  004040DB: FF 25 C4 50 40 00  jmp         dword ptr [__imp___set_new_mode]
___p__commode:
  004040E1: FF 25 30 51 40 00  jmp         dword ptr [__imp____p__commode]
__initialize_onexit_table:
  004040E7: FF 25 E8 50 40 00  jmp         dword ptr [__imp___initialize_onexit_table]
__register_onexit_function:
  004040ED: FF 25 EC 50 40 00  jmp         dword ptr [__imp___register_onexit_function]
__crt_atexit:
  004040F3: FF 25 04 51 40 00  jmp         dword ptr [__imp___crt_atexit]
__controlfp_s:
  004040F9: FF 25 F4 50 40 00  jmp         dword ptr [__imp___controlfp_s]
_terminate:
  004040FF: FF 25 F8 50 40 00  jmp         dword ptr [__imp__terminate]
_IsProcessorFeaturePresent@4:
  00404105: FF 25 50 50 40 00  jmp         dword ptr [__imp__IsProcessorFeaturePresent@4]
___acrt_initialize:
  0040410B: B0 01              mov         al,1
  0040410D: C3                 ret
___acrt_uninitialize:
  0040410E: B0 01              mov         al,1
  00404110: C3                 ret
  00404111: CC CC CC CC CC CC CC CC CC CC CC CC CC CC CC     ...............
__ftoui3:
  00404120: B9 01 00 00 00     mov         ecx,1
  00404125: F2 0F 10 2D 08 52  movsd       xmm5,mmword ptr ds:[405208h]
            40 00
  0040412D: EB 1C              jmp         __ftol3_NaN
__ftoul3:
  0040412F: B9 02 00 00 00     mov         ecx,2
  00404134: F2 0F 10 2D 10 52  movsd       xmm5,mmword ptr ds:[405210h]
            40 00
  0040413C: EB 0D              jmp         __ftol3_NaN
__ftol3:
  0040413E: B9 03 00 00 00     mov         ecx,3
  00404143: F2 0F 10 2D 08 52  movsd       xmm5,mmword ptr ds:[405208h]
            40 00
__ftol3_NaN:
  0040414B: 66 0F 7E C0        movd        eax,xmm0
  0040414F: 25 FF FF FF 7F     and         eax,7FFFFFFFh
  00404154: 3D 00 00 80 7F     cmp         eax,7F800000h
  00404159: 0F 83 4C 01 00 00  jae         __ftol3_arg_error
  0040415F: F3 0F 5A C0        cvtss2sd    xmm0,xmm0
__ftol3_work:
  00404163: 83 F9 02           cmp         ecx,2
  00404166: 75 18              jne         00404180
  00404168: F2 0F 10 15 28 52  movsd       xmm2,mmword ptr ds:[405228h]
            40 00
  00404170: 66 0F 2F C2        comisd      xmm0,xmm2
  00404174: 76 0A              jbe         00404180
  00404176: BA 10 00 00 00     mov         edx,10h
  0040417B: E8 3D 01 00 00     call        __ftol3_except
  00404180: 66 0F 2F C5        comisd      xmm0,xmm5
  00404184: 0F 83 21 01 00 00  jae         __ftol3_arg_error
  0040418A: F2 0F 10 35 00 52  movsd       xmm6,mmword ptr ds:[405200h]
            40 00
  00404192: 66 0F 2F C6        comisd      xmm0,xmm6
  00404196: 0F 82 0F 01 00 00  jb          __ftol3_arg_error
  0040419C: 66 0F 6F C8        movdqa      xmm1,xmm0
  004041A0: 66 0F 73 F1 01     psllq       xmm1,1
  004041A5: 66 0F 73 D1 01     psrlq       xmm1,1
  004041AA: 83 F9 01           cmp         ecx,1
  004041AD: 74 3A              je          __ftol3_common
  004041AF: F2 0F 10 15 20 52  movsd       xmm2,mmword ptr ds:[405220h]
            40 00
  004041B7: 66 0F 2F CA        comisd      xmm1,xmm2
  004041BB: 77 2C              ja          __ftol3_common
  004041BD: 66 0F 57 D2        xorpd       xmm2,xmm2
  004041C1: 66 0F 2F CA        comisd      xmm1,xmm2
  004041C5: 74 22              je          __ftol3_common
  004041C7: 50                 push        eax
  004041C8: 9B                 wait
  004041C9: D9 3C 24           fnstcw      word ptr [esp]
  004041CC: 66 8B 04 24        mov         ax,word ptr [esp]
  004041D0: 66 A9 10 00        test        ax,10h
  004041D4: 58                 pop         eax
  004041D5: 75 12              jne         __ftol3_common
  004041D7: BA 02 00 00 00     mov         edx,2
  004041DC: E8 DC 00 00 00     call        __ftol3_except
  004041E1: 33 C0              xor         eax,eax
  004041E3: BA 00 00 00 80     mov         edx,80000000h
  004041E8: C3                 ret
__ftol3_common:
  004041E9: 66 0F 57 F6        xorpd       xmm6,xmm6
  004041ED: 66 0F 2F CE        comisd      xmm1,xmm6
  004041F1: 0F 84 A6 00 00 00  je          0040429D
  004041F7: F2 0F 10 1D E0 51  movsd       xmm3,mmword ptr ds:[4051E0h]
            40 00
  004041FF: F2 0F 10 25 E8 51  movsd       xmm4,mmword ptr ds:[4051E8h]
            40 00
  00404207: 66 0F 6E 2D 40 52  movd        xmm5,dword ptr ds:[405240h]
            40 00
  0040420F: 66 0F 6F F0        movdqa      xmm6,xmm0
  00404213: F2 0F C2 F1 00     cmpeqsd     xmm6,xmm1
  00404218: 66 0F 6F D1        movdqa      xmm2,xmm1
  0040421C: 66 0F DB D3        pand        xmm2,xmm3
  00404220: 66 0F EB D4        por         xmm2,xmm4
  00404224: 66 0F 73 D1 34     psrlq       xmm1,34h
  00404229: 66 0F 6F E1        movdqa      xmm4,xmm1
  0040422D: 66 0F FB E5        psubq       xmm4,xmm5
  00404231: 66 0F 6F DA        movdqa      xmm3,xmm2
  00404235: 66 0F F3 DC        psllq       xmm3,xmm4
  00404239: 66 0F 6F E5        movdqa      xmm4,xmm5
  0040423D: 66 0F FB E1        psubq       xmm4,xmm1
  00404241: 66 0F 6F FA        movdqa      xmm7,xmm2
  00404245: 66 0F D3 FC        psrlq       xmm7,xmm4
  00404249: 66 0F 66 CD        pcmpgtd     xmm1,xmm5
  0040424D: 66 0F 62 C9        punpckldq   xmm1,xmm1
  00404251: 66 0F DB D9        pand        xmm3,xmm1
  00404255: 66 0F DF CF        pandn       xmm1,xmm7
  00404259: 66 0F EB CB        por         xmm1,xmm3
  0040425D: 66 0F EF ED        pxor        xmm5,xmm5
  00404261: 66 0F FB E9        psubq       xmm5,xmm1
  00404265: 66 0F DB CE        pand        xmm1,xmm6
  00404269: 66 0F DF F5        pandn       xmm6,xmm5
  0040426D: 66 0F EB F1        por         xmm6,xmm1
  00404271: 66 0F 7E E0        movd        eax,xmm4
  00404275: 83 F8 00           cmp         eax,0
  00404278: 7E 23              jle         0040429D
  0040427A: 66 0F F3 FC        psllq       xmm7,xmm4
  0040427E: 66 0F EF D7        pxor        xmm2,xmm7
  00404282: 66 0F 7E D0        movd        eax,xmm2
  00404286: 66 0F 73 DA 04     psrldq      xmm2,4
  0040428B: 66 0F 7E D2        movd        edx,xmm2
  0040428F: 0B C2              or          eax,edx
  00404291: 74 0A              je          0040429D
  00404293: BA 10 00 00 00     mov         edx,10h
  00404298: E8 20 00 00 00     call        __ftol3_except
  0040429D: 66 0F 7E F0        movd        eax,xmm6
  004042A1: 66 0F 73 DE 04     psrldq      xmm6,4
  004042A6: 66 0F 7E F2        movd        edx,xmm6
  004042AA: C3                 ret
__ftol3_arg_error:
  004042AB: BA 08 00 00 00     mov         edx,8
  004042B0: E8 08 00 00 00     call        __ftol3_except
  004042B5: 33 C0              xor         eax,eax
  004042B7: BA 00 00 00 80     mov         edx,80000000h
  004042BC: C3                 ret
__ftol3_except:
  004042BD: 83 EC 20           sub         esp,20h
  004042C0: 9B                 wait
  004042C1: D9 3C 24           fnstcw      word ptr [esp]
  004042C4: 0F B7 04 24        movzx       eax,word ptr [esp]
  004042C8: 83 FA 08           cmp         edx,8
  004042CB: 74 08              je          004042D5
  004042CD: 84 82 2F 52 40 00  test        byte ptr [edx+40522Fh],al
  004042D3: 75 28              jne         004042FD
  004042D5: D9 2D 50 52 40 00  fldcw       word ptr ds:[405250h]
  004042DB: 89 14 24           mov         dword ptr [esp],edx
  004042DE: C7 44 24 04 00 00  mov         dword ptr [esp+4],0
            00 00
  004042E6: F2 0F 11 44 24 08  movsd       mmword ptr [esp+8],xmm0
  004042EC: F2 0F 11 44 24 10  movsd       mmword ptr [esp+10h],xmm0
  004042F2: 89 44 24 18        mov         dword ptr [esp+18h],eax
  004042F6: E8 9C 01 00 00     call        __except1
  004042FB: DD D8              fstp        st(0)
  004042FD: 83 C4 20           add         esp,20h
  00404300: C3                 ret
__dtoui3:
  00404301: B9 01 00 00 00     mov         ecx,1
  00404306: F2 0F 10 2D 08 52  movsd       xmm5,mmword ptr ds:[405208h]
            40 00
  0040430E: EB 1C              jmp         __dtol3_NaN
__dtoul3:
  00404310: B9 04 00 00 00     mov         ecx,4
  00404315: F2 0F 10 2D 10 52  movsd       xmm5,mmword ptr ds:[405210h]
            40 00
  0040431D: EB 0D              jmp         __dtol3_NaN
__dtol3:
  0040431F: B9 05 00 00 00     mov         ecx,5
  00404324: F2 0F 10 2D 08 52  movsd       xmm5,mmword ptr ds:[405208h]
            40 00
__dtol3_NaN:
  0040432C: 66 0F 6F C8        movdqa      xmm1,xmm0
  00404330: 66 0F 73 D9 04     psrldq      xmm1,4
  00404335: 66 0F 7E C8        movd        eax,xmm1
  00404339: 25 FF FF FF 7F     and         eax,7FFFFFFFh
  0040433E: 3D 00 00 F0 7F     cmp         eax,7FF00000h
  00404343: 0F 83 62 FF FF FF  jae         __ftol3_arg_error
__dtol3_work:
  00404349: 83 F9 01           cmp         ecx,1
  0040434C: 0F 84 11 FE FF FF  je          __ftol3_work
  00404352: 66 0F 6F C8        movdqa      xmm1,xmm0
  00404356: 66 0F 73 F1 01     psllq       xmm1,1
  0040435B: 66 0F 73 D1 01     psrlq       xmm1,1
  00404360: F2 0F 10 15 18 52  movsd       xmm2,mmword ptr ds:[405218h]
            40 00
  00404368: 66 0F 2F CA        comisd      xmm1,xmm2
  0040436C: 76 2F              jbe         0040439D
  0040436E: 83 F9 04           cmp         ecx,4
  00404371: 74 16              je          00404389
  00404373: BA 01 00 00 00     mov         edx,1
  00404378: E8 40 FF FF FF     call        __ftol3_except
  0040437D: BA 10 00 00 00     mov         edx,10h
  00404382: E8 36 FF FF FF     call        __ftol3_except
  00404387: EB 14              jmp         0040439D
  00404389: BA 10 00 00 00     mov         edx,10h
  0040438E: E8 2A FF FF FF     call        __ftol3_except
  00404393: BA 01 00 00 00     mov         edx,1
  00404398: E8 20 FF FF FF     call        __ftol3_except
  0040439D: F2 0F 10 15 20 52  movsd       xmm2,mmword ptr ds:[405220h]
            40 00
  004043A5: 66 0F 2F CA        comisd      xmm1,xmm2
  004043A9: 73 27              jae         004043D2
  004043AB: 66 0F 57 D2        xorpd       xmm2,xmm2
  004043AF: 66 0F 2F CA        comisd      xmm1,xmm2
  004043B3: 0F 84 30 FE FF FF  je          __ftol3_common
  004043B9: BA 02 00 00 00     mov         edx,2
  004043BE: E8 FA FE FF FF     call        __ftol3_except
  004043C3: BA 10 00 00 00     mov         edx,10h
  004043C8: E8 F0 FE FF FF     call        __ftol3_except
  004043CD: E9 17 FE FF FF     jmp         __ftol3_common
  004043D2: 66 0F 6F D8        movdqa      xmm3,xmm0
  004043D6: 83 F9 04           cmp         ecx,4
  004043D9: 75 12              jne         004043ED
  004043DB: F2 0F 10 15 08 52  movsd       xmm2,mmword ptr ds:[405208h]
            40 00
  004043E3: 66 0F 2F DA        comisd      xmm3,xmm2
  004043E7: 72 04              jb          004043ED
  004043E9: 66 0F 5C DA        subpd       xmm3,xmm2
  004043ED: 66 0F 6F E3        movdqa      xmm4,xmm3
  004043F1: 66 0F 73 F4 23     psllq       xmm4,23h
  004043F6: 66 0F 73 D4 23     psrlq       xmm4,23h
  004043FB: 66 0F 7E E0        movd        eax,xmm4
  004043FF: 0B C0              or          eax,eax
  00404401: 74 0A              je          0040440D
  00404403: BA 10 00 00 00     mov         edx,10h
  00404408: E8 B0 FE FF FF     call        __ftol3_except
  0040440D: 66 0F 2F C5        comisd      xmm0,xmm5
  00404411: 0F 83 94 FE FF FF  jae         __ftol3_arg_error
  00404417: F2 0F 10 15 00 52  movsd       xmm2,mmword ptr ds:[405200h]
            40 00
  0040441F: 66 0F 2F C2        comisd      xmm0,xmm2
  00404423: 0F 82 82 FE FF FF  jb          __ftol3_arg_error
  00404429: E9 BB FD FF FF     jmp         __ftol3_common
  0040442E: 8B FF              mov         edi,edi
__ultod3:
  00404430: 0F 57 C0           xorps       xmm0,xmm0
  00404433: F2 0F 2A C1        cvtsi2sd    xmm0,ecx
  00404437: C1 E9 1F           shr         ecx,1Fh
  0040443A: F2 0F 58 04 CD D0  addsd       xmm0,mmword ptr [ecx*8+4051D0h]
            51 40 00
  00404443: 85 D2              test        edx,edx
  00404445: 74 1F              je          00404466
  00404447: 0F 57 C9           xorps       xmm1,xmm1
  0040444A: F2 0F 2A CA        cvtsi2sd    xmm1,edx
  0040444E: C1 EA 1F           shr         edx,1Fh
  00404451: F2 0F 58 0C D5 D0  addsd       xmm1,mmword ptr [edx*8+4051D0h]
            51 40 00
  0040445A: F2 0F 59 0D D8 51  mulsd       xmm1,mmword ptr ds:[4051D8h]
            40 00
  00404462: F2 0F 58 C1        addsd       xmm0,xmm1
  00404466: C3                 ret
  00404467: 8D A4 24 00 00 00  lea         esp,[esp]
            00
  0040446E: 8B FF              mov         edi,edi
__ltod3:
  00404470: 0F 57 C9           xorps       xmm1,xmm1
  00404473: F2 0F 2A CA        cvtsi2sd    xmm1,edx
  00404477: 0F 57 C0           xorps       xmm0,xmm0
  0040447A: F2 0F 2A C1        cvtsi2sd    xmm0,ecx
  0040447E: C1 E9 1F           shr         ecx,1Fh
  00404481: F2 0F 59 0D D8 51  mulsd       xmm1,mmword ptr ds:[4051D8h]
            40 00
  00404489: F2 0F 58 04 CD D0  addsd       xmm0,mmword ptr [ecx*8+4051D0h]
            51 40 00
  00404492: F2 0F 58 C1        addsd       xmm0,xmm1
  00404496: C3                 ret
__except1:
  00404497: FF 25 E0 50 40 00  jmp         dword ptr [__imp___except1]

  Summary

        1000 .data
        1000 .rdata
        1000 .reloc
        1000 .rsrc
        4000 .text
